(dp0
S'avdtp_subevent_signaling_connection_established_get_avdtp_cid'
p1
S'https://github.com/bluekitchen/btstack/blob/master/src/btstack_event.h#L4072'
p2
sS'gatt_client_is_ready'
p3
S'https://github.com/bluekitchen/btstack/blob/master/src/ble/gatt_client.h#L224'
p4
sS'gatt_client_discover_primary_services_by_uuid16'
p5
S'https://github.com/bluekitchen/btstack/blob/master/src/ble/gatt_client.h#L234'
p6
sS'rfcomm_send_prepared'
p7
S'https://github.com/bluekitchen/btstack/blob/master/src/classic/rfcomm.h#L393'
p8
sS'hsp_ag_set_speaker_gain'
p9
S'https://github.com/bluekitchen/btstack/blob/master/src/classic/hsp_ag.h#L138'
p10
sS'hfp_ag_outgoing_call_accepted'
p11
S'https://github.com/bluekitchen/btstack/blob/master/src/classic/hfp_ag.h#L279'
p12
sS'hfp_hf_disable_status_update_for_all_ag_indicators'
p13
S'https://github.com/bluekitchen/btstack/blob/master/src/classic/hfp_hf.h#L140'
p14
sS'avrcp_subevent_set_absolute_volume_response_get_absolute_volume'
p15
S'https://github.com/bluekitchen/btstack/blob/master/src/btstack_event.h#L5269'
p16
sS'hfp_hf_rrh_accept_held_call'
p17
S'https://github.com/bluekitchen/btstack/blob/master/src/classic/hfp_hf.h#L396'
p18
sS'rfcomm_set_required_security_level'
p19
S'https://github.com/bluekitchen/btstack/blob/master/src/classic/rfcomm.h#L256'
p20
sS'hci_event_encryption_change_get_status'
p21
S'https://github.com/bluekitchen/btstack/blob/master/src/btstack_event.h#L381'
p22
sS'l2cap_event_connection_parameter_update_request_get_interval_min'
p23
S'https://github.com/bluekitchen/btstack/blob/master/src/btstack_event.h#L1186'
p24
sS'avdtp_subevent_signaling_media_codec_sbc_configuration_get_media_type'
p25
S'https://github.com/bluekitchen/btstack/blob/master/src/btstack_event.h#L4356'
p26
sS'ad_data_contains_uuid16'
p27
S'https://github.com/bluekitchen/btstack/blob/master/src/ad_parser.h#L73'
p28
sS'sm_event_passkey_input_cancel_get_address'
p29
S'https://github.com/bluekitchen/btstack/blob/master/src/btstack_event.h#L2525'
p30
sS'att_server_init'
p31
S'https://github.com/bluekitchen/btstack/blob/master/src/ble/att_server.h#L55'
p32
sS'hfp_subevent_speaker_volume_get_gain'
p33
S'https://github.com/bluekitchen/btstack/blob/master/src/btstack_event.h#L3774'
p34
sS'crc8_check'
p35
S'https://github.com/bluekitchen/btstack/blob/master/src/classic/rfcomm.h#L400'
p36
sS'avrcp_subevent_notification_track_changed_get_avrcp_cid'
p37
S'https://github.com/bluekitchen/btstack/blob/master/src/btstack_event.h#L5166'
p38
sS'l2cap_send_prepared'
p39
S'https://github.com/bluekitchen/btstack/blob/master/src/l2cap.h#L490'
p40
sS'hsp_ag_disconnect'
p41
S'https://github.com/bluekitchen/btstack/blob/master/src/classic/hsp_ag.h#L107'
p42
sS'hfp_ag_init_call_hold_services'
p43
S'https://github.com/bluekitchen/btstack/blob/master/src/classic/hfp_ag.h#L112'
p44
sS'gatt_event_notification_get_handle'
p45
S'https://github.com/bluekitchen/btstack/blob/master/src/btstack_event.h#L1929'
p46
sS'hci_event_sco_can_send_now_get_handle'
p47
S'https://github.com/bluekitchen/btstack/blob/master/src/btstack_event.h#L1020'
p48
sS'little_endian_read_32'
p49
S'https://github.com/bluekitchen/btstack/blob/master/src/btstack_util.h#L102'
p50
sS'gatt_client_read_characteristic_descriptor'
p51
S'https://github.com/bluekitchen/btstack/blob/master/src/ble/gatt_client.h#L311'
p52
sS'hfp_hf_release_service_level_connection'
p53
S'https://github.com/bluekitchen/btstack/blob/master/src/classic/hfp_hf.h#L124'
p54
sS'gatt_client_prepare_write'
p55
S'https://github.com/bluekitchen/btstack/blob/master/src/ble/gatt_client.h#L353'
p56
sS'de_get_data_size'
p57
S'https://github.com/bluekitchen/btstack/blob/master/src/classic/sdp_util.h#L83'
p58
sS'hci_release_packet_buffer'
p59
S'https://github.com/bluekitchen/btstack/blob/master/src/hci.h#L1002'
p60
sS'avdtp_subevent_signaling_media_codec_sbc_configuration_get_reconfigure'
p61
S'https://github.com/bluekitchen/btstack/blob/master/src/btstack_event.h#L4347'
p62
sS'hci_event_le_meta_get_subevent_code'
p63
S'https://github.com/bluekitchen/btstack/blob/master/src/btstack_event.h#L141'
p64
sS'rfcomm_register_service'
p65
S'https://github.com/bluekitchen/btstack/blob/master/src/classic/rfcomm.h#L291'
p66
sS'hfp_ag_incoming_call'
p67
S'https://github.com/bluekitchen/btstack/blob/master/src/classic/hfp_ag.h#L269'
p68
sS'btstack_event_nr_connections_changed_get_number_connections'
p69
S'https://github.com/bluekitchen/btstack/blob/master/src/btstack_event.h#L989'
p70
sS'hfp_hf_set_hf_indicator'
p71
S'https://github.com/bluekitchen/btstack/blob/master/src/classic/hfp_hf.h#L417'
p72
sS'hsp_ag_release_audio_connection'
p73
S'https://github.com/bluekitchen/btstack/blob/master/src/classic/hsp_ag.h#L126'
p74
sS'hci_event_command_complete_get_num_hci_command_packets'
p75
S'https://github.com/bluekitchen/btstack/blob/master/src/btstack_event.h#L456'
p76
sS'avrcp_subevent_play_status_get_song_length'
p77
S'https://github.com/bluekitchen/btstack/blob/master/src/btstack_event.h#L5110'
p78
sS'hci_event_inquiry_complete_get_status'
p79
S'https://github.com/bluekitchen/btstack/blob/master/src/btstack_event.h#L158'
p80
sS'gap_event_inquiry_result_get_clock_offset'
p81
S'https://github.com/bluekitchen/btstack/blob/master/src/btstack_event.h#L2980'
p82
sS'hfp_ag_establish_audio_connection'
p83
S'https://github.com/bluekitchen/btstack/blob/master/src/classic/hfp_ag.h#L161'
p84
sS'sdp_event_query_service_record_handle_get_record_index'
p85
S'https://github.com/bluekitchen/btstack/blob/master/src/btstack_event.h#L1708'
p86
sS'gap_ssp_set_authentication_requirement'
p87
S'https://github.com/bluekitchen/btstack/blob/master/src/gap.h#L172'
p88
sS'avdtp_subevent_signaling_media_codec_other_capability_get_media_type'
p89
S'https://github.com/bluekitchen/btstack/blob/master/src/btstack_event.h#L4283'
p90
sS'l2cap_event_le_can_send_now_get_local_cid'
p91
S'https://github.com/bluekitchen/btstack/blob/master/src/btstack_event.h#L1417'
p92
sS'hfp_hf_private_consultation_with_call'
p93
S'https://github.com/bluekitchen/btstack/blob/master/src/classic/hfp_hf.h#L377'
p94
sS'de_add_data'
p95
S'https://github.com/bluekitchen/btstack/blob/master/src/classic/sdp_util.h#L92'
p96
sS'hci_subevent_le_connection_update_complete_get_conn_interval'
p97
S'https://github.com/bluekitchen/btstack/blob/master/src/btstack_event.h#L3145'
p98
sS'sdp_event_query_service_record_handle_get_total_count'
p99
S'https://github.com/bluekitchen/btstack/blob/master/src/btstack_event.h#L1699'
p100
sS'sm_set_io_capabilities'
p101
S'https://github.com/bluekitchen/btstack/blob/master/src/ble/sm.h#L153'
p102
sS'gap_advertisements_set_data'
p103
S'https://github.com/bluekitchen/btstack/blob/master/src/gap.h#L242'
p104
sS'btstack_run_loop_set_data_source_handler'
p105
S'https://github.com/bluekitchen/btstack/blob/master/src/btstack_run_loop.h#L160'
p106
sS'hfp_subevent_number_for_voice_tag_get_number'
p107
S'https://github.com/bluekitchen/btstack/blob/master/src/btstack_event.h#L3742'
p108
sS'ad_iterator_next'
p109
S'https://github.com/bluekitchen/btstack/blob/master/src/ad_parser.h#L65'
p110
sS'sm_cmac_ready'
p111
S'https://github.com/bluekitchen/btstack/blob/master/src/ble/sm.h#L244'
p112
sS'avrcp_subevent_now_playing_info_get_song_length'
p113
S'https://github.com/bluekitchen/btstack/blob/master/src/btstack_event.h#L4973'
p114
sS'gatt_event_characteristic_value_query_result_get_value'
p115
S'https://github.com/bluekitchen/btstack/blob/master/src/btstack_event.h#L1869'
p116
sS'l2cap_le_decline_connection'
p117
S'https://github.com/bluekitchen/btstack/blob/master/src/l2cap.h#L534'
p118
sS'sm_passkey_input'
p119
S'https://github.com/bluekitchen/btstack/blob/master/src/ble/sm.h#L190'
p120
sS'gatt_event_query_complete_get_handle'
p121
S'https://github.com/bluekitchen/btstack/blob/master/src/btstack_event.h#L1728'
p122
sS'bnep_event_channel_closed_get_destination_uuid'
p123
S'https://github.com/bluekitchen/btstack/blob/master/src/btstack_event.h#L2245'
p124
sS'avrcp_subevent_notification_now_playing_content_changed_get_avrcp_cid'
p125
S'https://github.com/bluekitchen/btstack/blob/master/src/btstack_event.h#L5185'
p126
sS'btstack_run_loop_add_timer'
p127
S'https://github.com/bluekitchen/btstack/blob/master/src/btstack_run_loop.h#L144'
p128
sS'hfp_hf_set_microphone_gain'
p129
S'https://github.com/bluekitchen/btstack/blob/master/src/classic/hfp_hf.h#L332'
p130
sS'avrcp_subevent_notification_playback_status_changed_get_play_status'
p131
S'https://github.com/bluekitchen/btstack/blob/master/src/btstack_event.h#L5156'
p132
sS'sm_init'
p133
S'https://github.com/bluekitchen/btstack/blob/master/src/ble/sm.h#L105'
p134
sS'des_iterator_has_more'
p135
S'https://github.com/bluekitchen/btstack/blob/master/src/classic/sdp_util.h#L104'
p136
sS'btstack_run_loop_enable_data_source_callbacks'
p137
S'https://github.com/bluekitchen/btstack/blob/master/src/btstack_run_loop.h#L181'
p138
sS'hfp_subevent_ag_indicator_status_changed_get_indicator_index'
p139
S'https://github.com/bluekitchen/btstack/blob/master/src/btstack_event.h#L3662'
p140
sS'hsp_subevent_hs_command_get_value'
p141
S'https://github.com/bluekitchen/btstack/blob/master/src/btstack_event.h#L3556'
p142
sS'reverse_bytes'
p143
S'https://github.com/bluekitchen/btstack/blob/master/src/btstack_util.h#L165'
p144
sS'hci_close'
p145
S'https://github.com/bluekitchen/btstack/blob/master/src/hci.h#L918'
p146
sS'hfp_ag_release_service_level_connection'
p147
S'https://github.com/bluekitchen/btstack/blob/master/src/classic/hfp_ag.h#L153'
p148
sS'avdtp_subevent_streaming_connection_released_get_local_seid'
p149
S'https://github.com/bluekitchen/btstack/blob/master/src/btstack_event.h#L4557'
p150
sS'gap_ssp_passkey_negative'
p151
S'https://github.com/bluekitchen/btstack/blob/master/src/gap.h#L444'
p152
sS'btstack_run_loop_disable_data_source_callbacks'
p153
S'https://github.com/bluekitchen/btstack/blob/master/src/btstack_run_loop.h#L188'
p154
sS'rfcomm_register_service_with_initial_credits'
p155
S'https://github.com/bluekitchen/btstack/blob/master/src/classic/rfcomm.h#L301'
p156
sS'hci_event_role_change_get_status'
p157
S'https://github.com/bluekitchen/btstack/blob/master/src/btstack_event.h#L522'
p158
sS'hsp_subevent_microphone_gain_changed_get_gain'
p159
S'https://github.com/bluekitchen/btstack/blob/master/src/btstack_event.h#L3527'
p160
sS'gatt_event_mtu_get_MTU'
p161
S'https://github.com/bluekitchen/btstack/blob/master/src/btstack_event.h#L2094'
p162
sS'hci_subevent_le_connection_complete_get_role'
p163
S'https://github.com/bluekitchen/btstack/blob/master/src/btstack_event.h#L3063'
p164
sS'sm_register_oob_data_callback'
p165
S'https://github.com/bluekitchen/btstack/blob/master/src/ble/sm.h#L123'
p166
sS'hfp_hf_rrh_reject_held_call'
p167
S'https://github.com/bluekitchen/btstack/blob/master/src/classic/hfp_hf.h#L402'
p168
sS'big_endian_store_24'
p169
S'https://github.com/bluekitchen/btstack/blob/master/src/btstack_util.h#L130'
p170
sS'hfp_ag_init_codecs'
p171
S'https://github.com/bluekitchen/btstack/blob/master/src/classic/hfp_ag.h#L85'
p172
sS'btstack_event_discoverable_enabled_get_discoverable'
p173
S'https://github.com/bluekitchen/btstack/blob/master/src/btstack_event.h#L1000'
p174
sS'ancs_subevent_client_notification_get_handle'
p175
S'https://github.com/bluekitchen/btstack/blob/master/src/btstack_event.h#L3947'
p176
sS'gap_stop_scan'
p177
S'https://github.com/bluekitchen/btstack/blob/master/src/gap.h#L210'
p178
sS'att_db_util_get_size'
p179
S'https://github.com/bluekitchen/btstack/blob/master/src/ble/att_db_util.h#L97'
p180
sS'avdtp_subevent_signaling_general_reject_get_signal_identifier'
p181
S'https://github.com/bluekitchen/btstack/blob/master/src/btstack_event.h#L4062'
p182
sS'hid_subevent_connection_opened_get_incoming'
p183
S'https://github.com/bluekitchen/btstack/blob/master/src/btstack_event.h#L5559'
p184
sS'avrcp_subevent_shuffle_and_repeat_mode_get_repeat_mode'
p185
S'https://github.com/bluekitchen/btstack/blob/master/src/btstack_event.h#L5073'
p186
sS'hfp_hf_redial_last_number'
p187
S'https://github.com/bluekitchen/btstack/blob/master/src/classic/hfp_hf.h#L266'
p188
sS'hci_event_command_complete_get_command_opcode'
p189
S'https://github.com/bluekitchen/btstack/blob/master/src/btstack_event.h#L465'
p190
sS'avrcp_subevent_connection_released_get_avrcp_cid'
p191
S'https://github.com/bluekitchen/btstack/blob/master/src/btstack_event.h#L4927'
p192
sS'hci_event_avrcp_meta_get_subevent_code'
p193
S'https://github.com/bluekitchen/btstack/blob/master/src/btstack_event.h#L101'
p194
sS'hci_event_extended_inquiry_response_get_bd_addr'
p195
S'https://github.com/bluekitchen/btstack/blob/master/src/btstack_event.h#L847'
p196
sS'hci_subevent_le_connection_complete_get_peer_address_type'
p197
S'https://github.com/bluekitchen/btstack/blob/master/src/btstack_event.h#L3072'
p198
sS'hsp_hs_establish_audio_connection'
p199
S'https://github.com/bluekitchen/btstack/blob/master/src/classic/hsp_hs.h#L124'
p200
sS'sm_event_identity_resolving_succeeded_get_address'
p201
S'https://github.com/bluekitchen/btstack/blob/master/src/btstack_event.h#L2684'
p202
sS'a2dp_subevent_signaling_media_codec_sbc_configuration_get_sampling_frequency'
p203
S'https://github.com/bluekitchen/btstack/blob/master/src/btstack_event.h#L4659'
p204
sS'goep_subevent_connection_closed_get_goep_cid'
p205
S'https://github.com/bluekitchen/btstack/blob/master/src/btstack_event.h#L5428'
p206
sS'hfp_ag_release_audio_connection'
p207
S'https://github.com/bluekitchen/btstack/blob/master/src/classic/hfp_ag.h#L169'
p208
sS'hsp_subevent_rfcomm_disconnection_complete_get_status'
p209
S'https://github.com/bluekitchen/btstack/blob/master/src/btstack_event.h#L3487'
p210
sS'gatt_event_indication_get_value'
p211
S'https://github.com/bluekitchen/btstack/blob/master/src/btstack_event.h#L1995'
p212
sS'avdtp_subevent_streaming_connection_established_get_remote_seid'
p213
S'https://github.com/bluekitchen/btstack/blob/master/src/btstack_event.h#L4529'
p214
sS'att_server_register_packet_handler'
p215
S'https://github.com/bluekitchen/btstack/blob/master/src/ble/att_server.h#L64'
p216
sS'hci_event_change_connection_link_key_complete_get_connection_handle'
p217
S'https://github.com/bluekitchen/btstack/blob/master/src/btstack_event.h#L418'
p218
sS'l2cap_register_packet_handler'
p219
S'https://github.com/bluekitchen/btstack/blob/master/src/l2cap.h#L381'
p220
sS'rfcomm_can_send_packet_now'
p221
S'https://github.com/bluekitchen/btstack/blob/master/src/classic/rfcomm.h#L328'
p222
sS'hci_subevent_le_connection_update_complete_get_status'
p223
S'https://github.com/bluekitchen/btstack/blob/master/src/btstack_event.h#L3127'
p224
sS'hci_event_synchronous_connection_complete_get_rx_packet_length'
p225
S'https://github.com/bluekitchen/btstack/blob/master/src/btstack_event.h#L810'
p226
sS'le_device_db_encryption_get'
p227
S'https://github.com/bluekitchen/btstack/blob/master/src/ble/le_device_db.h#L123'
p228
sS'hci_event_user_passkey_request_get_bd_addr'
p229
S'https://github.com/bluekitchen/btstack/blob/master/src/btstack_event.h#L940'
p230
sS'l2cap_get_remote_mtu_for_local_cid'
p231
S'https://github.com/bluekitchen/btstack/blob/master/src/l2cap.h#L427'
p232
sS'sdp_event_query_attribute_byte_get_attribute_id'
p233
S'https://github.com/bluekitchen/btstack/blob/master/src/btstack_event.h#L1625'
p234
sS'hci_event_extended_inquiry_response_get_rssi'
p235
S'https://github.com/bluekitchen/btstack/blob/master/src/btstack_event.h#L892'
p236
sS'rfcomm_event_remote_line_status_get_line_status'
p237
S'https://github.com/bluekitchen/btstack/blob/master/src/btstack_event.h#L1548'
p238
sS'gatt_event_included_service_query_result_get_service'
p239
S'https://github.com/bluekitchen/btstack/blob/master/src/btstack_event.h#L1809'
p240
sS'ad_iterator_get_data'
p241
S'https://github.com/bluekitchen/btstack/blob/master/src/ad_parser.h#L70'
p242
sS'l2cap_send'
p243
S'https://github.com/bluekitchen/btstack/blob/master/src/l2cap.h#L432'
p244
sS'gatt_event_characteristic_query_result_get_characteristic'
p245
S'https://github.com/bluekitchen/btstack/blob/master/src/btstack_event.h#L1779'
p246
sS'le_device_db_set_local_bd_addr'
p247
S'https://github.com/bluekitchen/btstack/blob/master/src/ble/le_device_db.h#L76'
p248
sS'ad_iterator_has_more'
p249
S'https://github.com/bluekitchen/btstack/blob/master/src/ad_parser.h#L64'
p250
sS'sm_event_identity_created_get_addr_type'
p251
S'https://github.com/bluekitchen/btstack/blob/master/src/btstack_event.h#L2822'
p252
sS'avdtp_subevent_streaming_can_send_media_packet_now_get_avdtp_cid'
p253
S'https://github.com/bluekitchen/btstack/blob/master/src/btstack_event.h#L4567'
p254
sS'l2cap_event_channel_opened_get_psm'
p255
S'https://github.com/bluekitchen/btstack/blob/master/src/btstack_event.h#L1057'
p256
sS'pan_create_gn_sdp_service'
p257
S'https://github.com/bluekitchen/btstack/blob/master/src/classic/pan.h#L83'
p258
sS'hfp_hf_set_status_update_for_individual_ag_indicators'
p259
S'https://github.com/bluekitchen/btstack/blob/master/src/classic/hfp_hf.h#L150'
p260
sS'hci_event_read_clock_offset_complete_get_clock_offset'
p261
S'https://github.com/bluekitchen/btstack/blob/master/src/btstack_event.h#L654'
p262
sS'sdp_client_query_rfcomm_channel_and_name_for_uuid'
p263
S'https://github.com/bluekitchen/btstack/blob/master/src/classic/sdp_client_rfcomm.h#L59'
p264
sS'avdtp_subevent_signaling_general_reject_get_local_seid'
p265
S'https://github.com/bluekitchen/btstack/blob/master/src/btstack_event.h#L4053'
p266
sS'avrcp_subevent_operation_start_get_operation_id'
p267
S'https://github.com/bluekitchen/btstack/blob/master/src/btstack_event.h#L5325'
p268
sS'btstack_flip_16'
p269
S'https://github.com/bluekitchen/btstack/blob/master/src/btstack_util.h#L137'
p270
sS'btstack_linked_list_empty'
p271
S'https://github.com/bluekitchen/btstack/blob/master/src/btstack_linked_list.h#L65'
p272
sS'l2cap_event_channel_opened_get_local_mtu'
p273
S'https://github.com/bluekitchen/btstack/blob/master/src/btstack_event.h#L1084'
p274
sS'de_create_sequence'
p275
S'https://github.com/bluekitchen/btstack/blob/master/src/classic/sdp_util.h#L87'
p276
sS'avdtp_subevent_signaling_media_codec_other_configuration_get_reconfigure'
p277
S'https://github.com/bluekitchen/btstack/blob/master/src/btstack_event.h#L4465'
p278
sS'sm_event_identity_resolving_succeeded_get_identity_address'
p279
S'https://github.com/bluekitchen/btstack/blob/master/src/btstack_event.h#L2702'
p280
sS'pbap_subevent_operation_completed_get_status'
p281
S'https://github.com/bluekitchen/btstack/blob/master/src/btstack_event.h#L5513'
p282
sS'hid_subevent_connection_closed_get_hid_cid'
p283
S'https://github.com/bluekitchen/btstack/blob/master/src/btstack_event.h#L5569'
p284
sS'le_device_db_remote_counter_get'
p285
S'https://github.com/bluekitchen/btstack/blob/master/src/ble/le_device_db.h#L160'
p286
sS'hfp_ag_reject_held_incoming_call'
p287
S'https://github.com/bluekitchen/btstack/blob/master/src/classic/hfp_ag.h#L199'
p288
sS'gap_event_dedicated_bonding_completed_get_status'
p289
S'https://github.com/bluekitchen/btstack/blob/master/src/btstack_event.h#L2879'
p290
sS'gatt_event_long_characteristic_descriptor_query_result_get_descriptor_offset'
p291
S'https://github.com/bluekitchen/btstack/blob/master/src/btstack_event.h#L2055'
p292
sS'btstack_run_loop_remove_data_source'
p293
S'https://github.com/bluekitchen/btstack/blob/master/src/btstack_run_loop.h#L200'
p294
sS'avdtp_subevent_streaming_connection_established_get_local_seid'
p295
S'https://github.com/bluekitchen/btstack/blob/master/src/btstack_event.h#L4520'
p296
sS'ancs_subevent_client_disconnected_get_handle'
p297
S'https://github.com/bluekitchen/btstack/blob/master/src/btstack_event.h#L3977'
p298
sS'hsp_ag_create_sdp_record'
p299
S'https://github.com/bluekitchen/btstack/blob/master/src/classic/hsp_ag.h#L70'
p300
sS'gatt_client_read_value_of_characteristic_using_value_handle'
p301
S'https://github.com/bluekitchen/btstack/blob/master/src/ble/gatt_client.h#L264'
p302
sS'hfp_hf_rrh_hold_call'
p303
S'https://github.com/bluekitchen/btstack/blob/master/src/classic/hfp_hf.h#L390'
p304
sS'sdp_unregister_service'
p305
S'https://github.com/bluekitchen/btstack/blob/master/src/classic/sdp_server.h#L80'
p306
sS'hci_event_max_slots_changed_get_handle'
p307
S'https://github.com/bluekitchen/btstack/blob/master/src/btstack_event.h#L617'
p308
sS'ancs_subevent_client_notification_get_attribute_id'
p309
S'https://github.com/bluekitchen/btstack/blob/master/src/btstack_event.h#L3956'
p310
sS'goep_subevent_can_send_now_get_goep_cid'
p311
S'https://github.com/bluekitchen/btstack/blob/master/src/btstack_event.h#L5438'
p312
sS'avdtp_subevent_signaling_connection_established_get_bd_addr'
p313
S'https://github.com/bluekitchen/btstack/blob/master/src/btstack_event.h#L4081'
p314
sS'sm_event_numeric_comparison_request_get_addr_type'
p315
S'https://github.com/bluekitchen/btstack/blob/master/src/btstack_event.h#L2546'
p316
sS'hci_event_inquiry_result_with_rssi_get_clock_offset'
p317
S'https://github.com/bluekitchen/btstack/blob/master/src/btstack_event.h#L737'
p318
sS'rfcomm_event_channel_closed_get_rfcomm_cid'
p319
S'https://github.com/bluekitchen/btstack/blob/master/src/btstack_event.h#L1501'
p320
sS'l2cap_event_le_incoming_connection_get_psm'
p321
S'https://github.com/bluekitchen/btstack/blob/master/src/btstack_event.h#L1279'
p322
sS'l2cap_max_le_mtu'
p323
S'https://github.com/bluekitchen/btstack/blob/master/src/l2cap.h#L391'
p324
sS'avdtp_subevent_signaling_media_codec_sbc_capability_get_subbands_bitmap'
p325
S'https://github.com/bluekitchen/btstack/blob/master/src/btstack_event.h#L4219'
p326
sS'sm_event_identity_resolving_started_get_addr_type'
p327
S'https://github.com/bluekitchen/btstack/blob/master/src/btstack_event.h#L2615'
p328
sS'a2dp_subevent_stream_started_get_local_seid'
p329
S'https://github.com/bluekitchen/btstack/blob/master/src/btstack_event.h#L4851'
p330
sS'hci_event_extended_inquiry_response_get_reserved'
p331
S'https://github.com/bluekitchen/btstack/blob/master/src/btstack_event.h#L865'
p332
sS'avdtp_subevent_signaling_media_codec_sbc_configuration_get_subbands'
p333
S'https://github.com/bluekitchen/btstack/blob/master/src/btstack_event.h#L4401'
p334
sS'rfcomm_event_channel_opened_get_incoming'
p335
S'https://github.com/bluekitchen/btstack/blob/master/src/btstack_event.h#L1491'
p336
sS'gap_event_inquiry_result_get_name_len'
p337
S'https://github.com/bluekitchen/btstack/blob/master/src/btstack_event.h#L3016'
p338
sS'gap_ssp_set_io_capability'
p339
S'https://github.com/bluekitchen/btstack/blob/master/src/gap.h#L167'
p340
sS'sm_event_authorization_result_get_address'
p341
S'https://github.com/bluekitchen/btstack/blob/master/src/btstack_event.h#L2771'
p342
sS'de_get_uuid32'
p343
S'https://github.com/bluekitchen/btstack/blob/master/src/classic/sdp_util.h#L84'
p344
sS'l2cap_event_le_channel_opened_get_incoming'
p345
S'https://github.com/bluekitchen/btstack/blob/master/src/btstack_event.h#L1352'
p346
sS'hci_event_synchronous_connection_complete_get_air_mode'
p347
S'https://github.com/bluekitchen/btstack/blob/master/src/btstack_event.h#L828'
p348
sS'rfcomm_query_port_configuration'
p349
S'https://github.com/bluekitchen/btstack/blob/master/src/classic/rfcomm.h#L373'
p350
sS'avdtp_subevent_signaling_media_codec_sbc_capability_get_sampling_frequency_bitmap'
p351
S'https://github.com/bluekitchen/btstack/blob/master/src/btstack_event.h#L4192'
p352
sS'gap_inquiry_stop'
p353
S'https://github.com/bluekitchen/btstack/blob/master/src/gap.h#L403'
p354
sS'reverse_bd_addr'
p355
S'https://github.com/bluekitchen/btstack/blob/master/src/btstack_util.h#L179'
p356
sS'rfcomm_create_channel_with_initial_credits'
p357
S'https://github.com/bluekitchen/btstack/blob/master/src/classic/rfcomm.h#L277'
p358
sS'gatt_client_read_long_characteristic_descriptor'
p359
S'https://github.com/bluekitchen/btstack/blob/master/src/ble/gatt_client.h#L317'
p360
sS'gatt_client_listen_for_characteristic_value_updates'
p361
S'https://github.com/bluekitchen/btstack/blob/master/src/ble/gatt_client.h#L342'
p362
sS'uuid_has_bluetooth_prefix'
p363
S'https://github.com/bluekitchen/btstack/blob/master/src/btstack_util.h#L247'
p364
sS'hci_event_read_clock_offset_complete_get_status'
p365
S'https://github.com/bluekitchen/btstack/blob/master/src/btstack_event.h#L636'
p366
sS'bd_addr_to_str'
p367
S'https://github.com/bluekitchen/btstack/blob/master/src/btstack_util.h#L225'
p368
sS'l2cap_event_channel_opened_get_flush_timeout'
p369
S'https://github.com/bluekitchen/btstack/blob/master/src/btstack_event.h#L1102'
p370
sS'hci_event_inquiry_result_with_rssi_get_bd_addr'
p371
S'https://github.com/bluekitchen/btstack/blob/master/src/btstack_event.h#L701'
p372
sS'hfp_hf_init_supported_features'
p373
S'https://github.com/bluekitchen/btstack/blob/master/src/classic/hfp_hf.h#L85'
p374
sS'att_server_request_can_send_now_event'
p375
S'https://github.com/bluekitchen/btstack/blob/master/src/ble/att_server.h#L79'
p376
sS'hfp_ag_report_extended_audio_gateway_error_result_code'
p377
S'https://github.com/bluekitchen/btstack/blob/master/src/classic/hfp_ag.h#L358'
p378
sS'sdp_event_query_attribute_byte_get_record_id'
p379
S'https://github.com/bluekitchen/btstack/blob/master/src/btstack_event.h#L1616'
p380
sS'gatt_event_indication_get_value_length'
p381
S'https://github.com/bluekitchen/btstack/blob/master/src/btstack_event.h#L1986'
p382
sS'a2dp_subevent_signaling_media_codec_other_configuration_get_reconfigure'
p383
S'https://github.com/bluekitchen/btstack/blob/master/src/btstack_event.h#L4759'
p384
sS'goep_subevent_connection_opened_get_status'
p385
S'https://github.com/bluekitchen/btstack/blob/master/src/btstack_event.h#L5391'
p386
sS'sm_event_numeric_comparison_cancel_get_address'
p387
S'https://github.com/bluekitchen/btstack/blob/master/src/btstack_event.h#L2594'
p388
sS'a2dp_subevent_signaling_media_codec_other_configuration_get_acp_seid'
p389
S'https://github.com/bluekitchen/btstack/blob/master/src/btstack_event.h#L4750'
p390
sS'l2cap_event_connection_parameter_update_request_get_handle'
p391
S'https://github.com/bluekitchen/btstack/blob/master/src/btstack_event.h#L1177'
p392
sS'avdtp_subevent_signaling_media_codec_sbc_capability_get_channel_mode_bitmap'
p393
S'https://github.com/bluekitchen/btstack/blob/master/src/btstack_event.h#L4201'
p394
sS'bd_addr_copy'
p395
S'https://github.com/bluekitchen/btstack/blob/master/src/btstack_util.h#L206'
p396
sS'avdtp_subevent_signaling_media_codec_sbc_configuration_get_num_channels'
p397
S'https://github.com/bluekitchen/btstack/blob/master/src/btstack_event.h#L4383'
p398
sS'avrcp_subevent_now_playing_info_get_genre_len'
p399
S'https://github.com/bluekitchen/btstack/blob/master/src/btstack_event.h#L5036'
p400
sS'hci_transport_usb_set_path'
p401
S'https://github.com/bluekitchen/btstack/blob/master/src/hci_transport.h#L165'
p402
sS'avrcp_subevent_player_application_value_response_get_command_type'
p403
S'https://github.com/bluekitchen/btstack/blob/master/src/btstack_event.h#L5372'
p404
sS'l2cap_le_accept_connection'
p405
S'https://github.com/bluekitchen/btstack/blob/master/src/l2cap.h#L527'
p406
sS'l2cap_le_provide_credits'
p407
S'https://github.com/bluekitchen/btstack/blob/master/src/l2cap.h#L556'
p408
sS'l2cap_event_le_packet_sent_get_local_cid'
p409
S'https://github.com/bluekitchen/btstack/blob/master/src/btstack_event.h#L1427'
p410
sS'avrcp_subevent_now_playing_info_get_artist'
p411
S'https://github.com/bluekitchen/btstack/blob/master/src/btstack_event.h#L5009'
p412
sS'sm_event_identity_created_get_address'
p413
S'https://github.com/bluekitchen/btstack/blob/master/src/btstack_event.h#L2831'
p414
sS'pbap_subevent_connection_opened_get_pbap_cid'
p415
S'https://github.com/bluekitchen/btstack/blob/master/src/btstack_event.h#L5448'
p416
sS'gap_update_connection_parameters'
p417
S'https://github.com/bluekitchen/btstack/blob/master/src/gap.h#L309'
p418
sS'bnep_disconnect'
p419
S'https://github.com/bluekitchen/btstack/blob/master/src/classic/bnep.h#L208'
p420
sS'hfp_hf_query_current_call_status'
p421
S'https://github.com/bluekitchen/btstack/blob/master/src/classic/hfp_hf.h#L362'
p422
sS'sm_set_accepted_stk_generation_methods'
p423
S'https://github.com/bluekitchen/btstack/blob/master/src/ble/sm.h#L134'
p424
sS'hci_event_master_link_key_complete_get_connection_handle'
p425
S'https://github.com/bluekitchen/btstack/blob/master/src/btstack_event.h#L437'
p426
sS'a2dp_subevent_stream_released_get_a2dp_cid'
p427
S'https://github.com/bluekitchen/btstack/blob/master/src/btstack_event.h#L4880'
p428
sS'hfp_hf_enable_status_update_for_all_ag_indicators'
p429
S'https://github.com/bluekitchen/btstack/blob/master/src/classic/hfp_hf.h#L133'
p430
sS'hci_get_outgoing_packet_buffer'
p431
S'https://github.com/bluekitchen/btstack/blob/master/src/hci.h#L996'
p432
sS'l2cap_event_connection_parameter_update_request_get_latencey'
p433
S'https://github.com/bluekitchen/btstack/blob/master/src/btstack_event.h#L1204'
p434
sS'rfcomm_event_channel_opened_get_status'
p435
S'https://github.com/bluekitchen/btstack/blob/master/src/btstack_event.h#L1437'
p436
sS'sm_set_encryption_key_size_range'
p437
S'https://github.com/bluekitchen/btstack/blob/master/src/ble/sm.h#L141'
p438
sS'hci_subevent_le_remote_connection_parameter_request_get_timeout'
p439
S'https://github.com/bluekitchen/btstack/blob/master/src/btstack_event.h#L3265'
p440
sS'avdtp_subevent_signaling_media_codec_sbc_configuration_get_channel_mode'
p441
S'https://github.com/bluekitchen/btstack/blob/master/src/btstack_event.h#L4374'
p442
sS'gap_set_connection_parameter_range'
p443
S'https://github.com/bluekitchen/btstack/blob/master/src/gap.h#L322'
p444
sS'att_db_util_add_service_uuid16'
p445
S'https://github.com/bluekitchen/btstack/blob/master/src/ble/att_db_util.h#L68'
p446
sS'hci_event_connection_complete_get_encryption_enabled'
p447
S'https://github.com/bluekitchen/btstack/blob/master/src/btstack_event.h#L268'
p448
sS'avdtp_subevent_signaling_media_codec_sbc_configuration_get_block_length'
p449
S'https://github.com/bluekitchen/btstack/blob/master/src/btstack_event.h#L4392'
p450
sS'hfp_subevent_enhanced_call_status_get_clcc_dir'
p451
S'https://github.com/bluekitchen/btstack/blob/master/src/btstack_event.h#L3850'
p452
sS'gatt_client_read_characteristic_descriptor_using_descriptor_handle'
p453
S'https://github.com/bluekitchen/btstack/blob/master/src/ble/gatt_client.h#L312'
p454
sS'hci_event_synchronous_connection_complete_get_tx_packet_length'
p455
S'https://github.com/bluekitchen/btstack/blob/master/src/btstack_event.h#L819'
p456
sS'avdtp_subevent_signaling_media_codec_other_configuration_get_media_codec_type'
p457
S'https://github.com/bluekitchen/btstack/blob/master/src/btstack_event.h#L4483'
p458
sS'sm_event_passkey_input_cancel_get_addr_type'
p459
S'https://github.com/bluekitchen/btstack/blob/master/src/btstack_event.h#L2516'
p460
sS'hci_event_master_link_key_complete_get_key_flag'
p461
S'https://github.com/bluekitchen/btstack/blob/master/src/btstack_event.h#L446'
p462
sS'hsp_hs_create_sdp_record'
p463
S'https://github.com/bluekitchen/btstack/blob/master/src/classic/hsp_hs.h#L70'
p464
sS'btstack_memory_init'
p465
S'https://github.com/bluekitchen/btstack/blob/master/src/btstack_memory.h#L82'
p466
sS'gap_local_bd_addr'
p467
S'https://github.com/bluekitchen/btstack/blob/master/src/gap.h#L373'
p468
sS'hfp_hf_init_hf_indicators'
p469
S'https://github.com/bluekitchen/btstack/blob/master/src/classic/hfp_hf.h#L92'
p470
sS'gatt_event_notification_get_value_handle'
p471
S'https://github.com/bluekitchen/btstack/blob/master/src/btstack_event.h#L1938'
p472
sS'att_event_handle_value_indication_complete_get_status'
p473
S'https://github.com/bluekitchen/btstack/blob/master/src/btstack_event.h#L2124'
p474
sS'sm_le_device_index'
p475
S'https://github.com/bluekitchen/btstack/blob/master/src/ble/sm.h#L282'
p476
sS'gap_event_dedicated_bonding_completed_get_address'
p477
S'https://github.com/bluekitchen/btstack/blob/master/src/btstack_event.h#L2888'
p478
sS'hci_subevent_le_data_length_change_get_connection_handle'
p479
S'https://github.com/bluekitchen/btstack/blob/master/src/btstack_event.h#L3275'
p480
sS'gap_set_connection_parameters'
p481
S'https://github.com/bluekitchen/btstack/blob/master/src/gap.h#L285'
p482
sS'sdp_event_query_attribute_value_get_attribute_length'
p483
S'https://github.com/bluekitchen/btstack/blob/master/src/btstack_event.h#L1680'
p484
sS'sm_add_event_handler'
p485
S'https://github.com/bluekitchen/btstack/blob/master/src/ble/sm.h#L128'
p486
sS'gatt_client_cancel_write'
p487
S'https://github.com/bluekitchen/btstack/blob/master/src/ble/gatt_client.h#L363'
p488
sS'gatt_event_all_characteristic_descriptors_query_result_get_characteristic_descriptor'
p489
S'https://github.com/bluekitchen/btstack/blob/master/src/btstack_event.h#L1830'
p490
sS'btstack_run_loop_get_data_source_fd'
p491
S'https://github.com/bluekitchen/btstack/blob/master/src/btstack_run_loop.h#L174'
p492
sS'hfp_ag_answer_incoming_call'
p493
S'https://github.com/bluekitchen/btstack/blob/master/src/classic/hfp_ag.h#L174'
p494
sS'rfcomm_release_packet_buffer'
p495
S'https://github.com/bluekitchen/btstack/blob/master/src/classic/rfcomm.h#L394'
p496
sS'hci_event_authentication_complete_event_get_status'
p497
S'https://github.com/bluekitchen/btstack/blob/master/src/btstack_event.h#L334'
p498
sS'sm_keypress_notification'
p499
S'https://github.com/bluekitchen/btstack/blob/master/src/ble/sm.h#L197'
p500
sS'sm_event_identity_resolving_failed_get_addr_type'
p501
S'https://github.com/bluekitchen/btstack/blob/master/src/btstack_event.h#L2645'
p502
sS'a2dp_subevent_stream_started_get_a2dp_cid'
p503
S'https://github.com/bluekitchen/btstack/blob/master/src/btstack_event.h#L4842'
p504
sS'hfp_hf_answer_incoming_call'
p505
S'https://github.com/bluekitchen/btstack/blob/master/src/classic/hfp_hf.h#L202'
p506
sS'btstack_is_little_endian'
p507
S'https://github.com/bluekitchen/btstack/blob/master/src/btstack_util.h#L154'
p508
sS'sdp_record_matches_service_search_pattern'
p509
S'https://github.com/bluekitchen/btstack/blob/master/src/classic/sdp_util.h#L114'
p510
sS'sdp_event_query_rfcomm_service_get_rfcomm_channel'
p511
S'https://github.com/bluekitchen/btstack/blob/master/src/btstack_event.h#L1597'
p512
sS'pbap_subevent_operation_completed_get_goep_cid'
p513
S'https://github.com/bluekitchen/btstack/blob/master/src/btstack_event.h#L5504'
p514
sS'pan_create_panu_sdp_record'
p515
S'https://github.com/bluekitchen/btstack/blob/master/src/classic/pan.h#L67'
p516
sS'gatt_client_read_long_characteristic_descriptor_using_descriptor_handle_with_offset'
p517
S'https://github.com/bluekitchen/btstack/blob/master/src/ble/gatt_client.h#L319'
p518
sS'sm_event_passkey_display_cancel_get_addr_type'
p519
S'https://github.com/bluekitchen/btstack/blob/master/src/btstack_event.h#L2456'
p520
sS'l2cap_can_send_packet_now'
p521
S'https://github.com/bluekitchen/btstack/blob/master/src/l2cap.h#L467'
p522
sS'big_endian_read_16'
p523
S'https://github.com/bluekitchen/btstack/blob/master/src/btstack_util.h#L119'
p524
sS'hfp_ag_reject_phone_number_for_voice_tag'
p525
S'https://github.com/bluekitchen/btstack/blob/master/src/classic/hfp_ag.h#L254'
p526
sS'btstack_run_loop_execute'
p527
S'https://github.com/bluekitchen/btstack/blob/master/src/btstack_run_loop.h#L205'
p528
sS'l2cap_event_connection_parameter_update_request_get_timeout_multiplier'
p529
S'https://github.com/bluekitchen/btstack/blob/master/src/btstack_event.h#L1213'
p530
sS'bnep_connect'
p531
S'https://github.com/bluekitchen/btstack/blob/master/src/classic/bnep.h#L203'
p532
sS'hci_event_master_link_key_complete_get_status'
p533
S'https://github.com/bluekitchen/btstack/blob/master/src/btstack_event.h#L428'
p534
sS'hfp_hf_dial_memory'
p535
S'https://github.com/bluekitchen/btstack/blob/master/src/classic/hfp_hf.h#L260'
p536
sS'gap_disconnect'
p537
S'https://github.com/bluekitchen/btstack/blob/master/src/gap.h#L114'
p538
sS'gatt_client_write_long_value_of_characteristic'
p539
S'https://github.com/bluekitchen/btstack/blob/master/src/ble/gatt_client.h#L300'
p540
sS'avrcp_subevent_now_playing_info_get_album'
p541
S'https://github.com/bluekitchen/btstack/blob/master/src/btstack_event.h#L5027'
p542
sS'hfp_ag_set_registration_status'
p543
S'https://github.com/bluekitchen/btstack/blob/master/src/classic/hfp_ag.h#L300'
p544
sS'hci_subevent_le_generate_dhkey_complete_get_dhkey_x'
p545
S'https://github.com/bluekitchen/btstack/blob/master/src/btstack_event.h#L3358'
p546
sS'avdtp_subevent_signaling_sep_found_get_in_use'
p547
S'https://github.com/bluekitchen/btstack/blob/master/src/btstack_event.h#L4128'
p548
sS'hci_transport_t'
p549
S'https://github.com/bluekitchen/btstack/blob/master/src/hci_transport.h#L112'
p550
sS'sdp_client_query_rfcomm_channel_and_name_for_search_pattern'
p551
S'https://github.com/bluekitchen/btstack/blob/master/src/classic/sdp_client_rfcomm.h#L70'
p552
sS'gap_event_advertising_report_get_address'
p553
S'https://github.com/bluekitchen/btstack/blob/master/src/btstack_event.h#L2916'
p554
sS'sm_event_authorization_request_get_addr_type'
p555
S'https://github.com/bluekitchen/btstack/blob/master/src/btstack_event.h#L2732'
p556
sS'hfp_hf_reject_incoming_call'
p557
S'https://github.com/bluekitchen/btstack/blob/master/src/classic/hfp_hf.h#L208'
p558
sS'l2cap_event_le_incoming_connection_get_address'
p559
S'https://github.com/bluekitchen/btstack/blob/master/src/btstack_event.h#L1261'
p560
sS'rfcomm_grant_credits'
p561
S'https://github.com/bluekitchen/btstack/blob/master/src/classic/rfcomm.h#L321'
p562
sS'sm_event_identity_resolving_succeeded_get_addr_type'
p563
S'https://github.com/bluekitchen/btstack/blob/master/src/btstack_event.h#L2675'
p564
sS'btstack_run_loop_set_timer_context'
p565
S'https://github.com/bluekitchen/btstack/blob/master/src/btstack_run_loop.h#L134'
p566
sS'hci_event_goep_meta_get_subevent_code'
p567
S'https://github.com/bluekitchen/btstack/blob/master/src/btstack_event.h#L109'
p568
sS'hfp_ag_outgoing_call_established'
p569
S'https://github.com/bluekitchen/btstack/blob/master/src/classic/hfp_ag.h#L289'
p570
sS'sdp_event_query_attribute_value_get_attribute_id'
p571
S'https://github.com/bluekitchen/btstack/blob/master/src/btstack_event.h#L1671'
p572
sS'pbap_subevent_connection_opened_get_bd_addr'
p573
S'https://github.com/bluekitchen/btstack/blob/master/src/btstack_event.h#L5466'
p574
sS'hsp_ag_send_result'
p575
S'https://github.com/bluekitchen/btstack/blob/master/src/classic/hsp_ag.h#L166'
p576
sS'rfcomm_decline_connection'
p577
S'https://github.com/bluekitchen/btstack/blob/master/src/classic/rfcomm.h#L316'
p578
sS'hfp_ag_set_subcriber_number_information'
p579
S'https://github.com/bluekitchen/btstack/blob/master/src/classic/hfp_ag.h#L319'
p580
sS'a2dp_subevent_signaling_media_codec_sbc_configuration_get_num_channels'
p581
S'https://github.com/bluekitchen/btstack/blob/master/src/btstack_event.h#L4677'
p582
sS'avrcp_subevent_operation_start_get_avrcp_cid'
p583
S'https://github.com/bluekitchen/btstack/blob/master/src/btstack_event.h#L5307'
p584
sS'gap_event_advertising_report_get_data_length'
p585
S'https://github.com/bluekitchen/btstack/blob/master/src/btstack_event.h#L2934'
p586
sS'bnep_event_can_send_now_get_remote_address'
p587
S'https://github.com/bluekitchen/btstack/blob/master/src/btstack_event.h#L2337'
p588
sS'sm_set_request_security'
p589
S'https://github.com/bluekitchen/btstack/blob/master/src/ble/sm.h#L159'
p590
sS'btstack_run_loop_$'
p591
S'https://github.com/bluekitchen/btstack/blob/master/src/btstack_run_loop.h#L117'
p592
sS'sdp_init'
p593
S'https://github.com/bluekitchen/btstack/blob/master/src/classic/sdp_server.h#L66'
p594
sS'rfcomm_event_incoming_connection_get_bd_addr'
p595
S'https://github.com/bluekitchen/btstack/blob/master/src/btstack_event.h#L1511'
p596
sS'hfp_subevent_enhanced_call_status_get_bnip_type'
p597
S'https://github.com/bluekitchen/btstack/blob/master/src/btstack_event.h#L3877'
p598
sS'ancs_client_init'
p599
S'https://github.com/bluekitchen/btstack/blob/master/src/ble/ancs_client.h#L50'
p600
sS'hci_event_disconnection_complete_get_reason'
p601
S'https://github.com/bluekitchen/btstack/blob/master/src/btstack_event.h#L324'
p602
sS'sm_event_numeric_comparison_cancel_get_handle'
p603
S'https://github.com/bluekitchen/btstack/blob/master/src/btstack_event.h#L2576'
p604
sS'hfp_subevent_call_waiting_notification_get_number'
p605
S'https://github.com/bluekitchen/btstack/blob/master/src/btstack_event.h#L3812'
p606
sS'*l2cap_get_outgoing_buffer'
p607
S'https://github.com/bluekitchen/btstack/blob/master/src/l2cap.h#L485'
p608
sS'hci_event_synchronous_connection_complete_get_status'
p609
S'https://github.com/bluekitchen/btstack/blob/master/src/btstack_event.h#L756'
p610
sS'hfp_hf_deactivate_calling_line_notification'
p611
S'https://github.com/bluekitchen/btstack/blob/master/src/classic/hfp_hf.h#L297'
p612
sS'hfp_ag_init'
p613
S'https://github.com/bluekitchen/btstack/blob/master/src/classic/hfp_ag.h#L78'
p614
sS'le_device_db_init'
p615
S'https://github.com/bluekitchen/btstack/blob/master/src/ble/le_device_db.h#L69'
p616
sS'hci_add_event_handler'
p617
S'https://github.com/bluekitchen/btstack/blob/master/src/hci.h#L927'
p618
sS'hci_event_command_status_get_num_hci_command_packets'
p619
S'https://github.com/bluekitchen/btstack/blob/master/src/btstack_event.h#L493'
p620
sS'de_store_descriptor_with_len'
p621
S'https://github.com/bluekitchen/btstack/blob/master/src/classic/sdp_util.h#L88'
p622
sS'avrcp_subevent_set_absolute_volume_response_get_command_type'
p623
S'https://github.com/bluekitchen/btstack/blob/master/src/btstack_event.h#L5260'
p624
sS'hsp_hs_register_packet_handler'
p625
S'https://github.com/bluekitchen/btstack/blob/master/src/classic/hsp_hs.h#L87'
p626
sS'sm_event_identity_created_get_identity_address'
p627
S'https://github.com/bluekitchen/btstack/blob/master/src/btstack_event.h#L2849'
p628
sS'avrcp_subevent_play_status_get_song_position'
p629
S'https://github.com/bluekitchen/btstack/blob/master/src/btstack_event.h#L5119'
p630
sS'sm_authorization_decline'
p631
S'https://github.com/bluekitchen/btstack/blob/master/src/ble/sm.h#L231'
p632
sS'hci_event_inquiry_result_with_rssi_get_class_of_device'
p633
S'https://github.com/bluekitchen/btstack/blob/master/src/btstack_event.h#L728'
p634
sS'avrcp_subevent_now_playing_info_get_genre'
p635
S'https://github.com/bluekitchen/btstack/blob/master/src/btstack_event.h#L5045'
p636
sS'gatt_event_long_characteristic_descriptor_query_result_get_descriptor'
p637
S'https://github.com/bluekitchen/btstack/blob/master/src/btstack_event.h#L2073'
p638
sS'a2dp_subevent_signaling_media_codec_sbc_configuration_get_channel_mode'
p639
S'https://github.com/bluekitchen/btstack/blob/master/src/btstack_event.h#L4668'
p640
sS'btstack_run_loop_add_data_source'
p641
S'https://github.com/bluekitchen/btstack/blob/master/src/btstack_run_loop.h#L194'
p642
sS'hfp_ag_outgoing_call_rejected'
p643
S'https://github.com/bluekitchen/btstack/blob/master/src/classic/hfp_ag.h#L274'
p644
sS'hfp_subevent_place_call_with_number_get_number'
p645
S'https://github.com/bluekitchen/btstack/blob/master/src/btstack_event.h#L3731'
p646
sS'gatt_client_get_mtu'
p647
S'https://github.com/bluekitchen/btstack/blob/master/src/ble/gatt_client.h#L219'
p648
sS'l2cap_event_le_channel_closed_get_local_cid'
p649
S'https://github.com/bluekitchen/btstack/blob/master/src/btstack_event.h#L1407'
p650
sS'hci_event_encryption_key_refresh_complete_get_status'
p651
S'https://github.com/bluekitchen/btstack/blob/master/src/btstack_event.h#L902'
p652
sS'l2cap_event_connection_parameter_update_response_get_result'
p653
S'https://github.com/bluekitchen/btstack/blob/master/src/btstack_event.h#L1232'
p654
sS'a2dp_subevent_stream_suspended_get_local_seid'
p655
S'https://github.com/bluekitchen/btstack/blob/master/src/btstack_event.h#L4870'
p656
sS'hsp_hs_release_audio_connection'
p657
S'https://github.com/bluekitchen/btstack/blob/master/src/classic/hsp_hs.h#L133'
p658
sS'gatt_client_write_long_characteristic_descriptor'
p659
S'https://github.com/bluekitchen/btstack/blob/master/src/ble/gatt_client.h#L326'
p660
sS'hci_subevent_le_enhanced_connection_complete_get_role'
p661
S'https://github.com/bluekitchen/btstack/blob/master/src/btstack_event.h#L3395'
p662
sS'gatt_event_service_query_result_get_handle'
p663
S'https://github.com/bluekitchen/btstack/blob/master/src/btstack_event.h#L1749'
p664
sS'gatt_event_characteristic_descriptor_query_result_get_descriptor'
p665
S'https://github.com/bluekitchen/btstack/blob/master/src/btstack_event.h#L2034'
p666
sS'hfp_ag_set_speaker_gain'
p667
S'https://github.com/bluekitchen/btstack/blob/master/src/classic/hfp_ag.h#L213'
p668
sS'hci_subevent_le_enhanced_connection_complete_get_master_clock_accuracy'
p669
S'https://github.com/bluekitchen/btstack/blob/master/src/btstack_event.h#L3467'
p670
sS'avrcp_subevent_notification_playback_status_changed_get_command_type'
p671
S'https://github.com/bluekitchen/btstack/blob/master/src/btstack_event.h#L5147'
p672
sS'rfcomm_create_channel'
p673
S'https://github.com/bluekitchen/btstack/blob/master/src/classic/rfcomm.h#L266'
p674
sS'gatt_event_long_characteristic_value_query_result_get_handle'
p675
S'https://github.com/bluekitchen/btstack/blob/master/src/btstack_event.h#L1881'
p676
sS'avrcp_subevent_play_status_get_avrcp_cid'
p677
S'https://github.com/bluekitchen/btstack/blob/master/src/btstack_event.h#L5092'
p678
sS'hfp_subevent_microphone_volume_get_status'
p679
S'https://github.com/bluekitchen/btstack/blob/master/src/btstack_event.h#L3784'
p680
sS'bnep_event_can_send_now_get_source_uuid'
p681
S'https://github.com/bluekitchen/btstack/blob/master/src/btstack_event.h#L2319'
p682
sS'hid_subevent_can_send_now_get_hid_cid'
p683
S'https://github.com/bluekitchen/btstack/blob/master/src/btstack_event.h#L5579'
p684
sS'bnep_event_can_send_now_get_destination_uuid'
p685
S'https://github.com/bluekitchen/btstack/blob/master/src/btstack_event.h#L2328'
p686
sS'hfp_subevent_calling_line_identification_notification_get_number'
p687
S'https://github.com/bluekitchen/btstack/blob/master/src/btstack_event.h#L3831'
p688
sS'hci_event_mode_change_event_get_handle'
p689
S'https://github.com/bluekitchen/btstack/blob/master/src/btstack_event.h#L559'
p690
sS'gatt_client_read_value_of_characteristics_by_uuid128'
p691
S'https://github.com/bluekitchen/btstack/blob/master/src/ble/gatt_client.h#L270'
p692
sS'hci_event_packet_get_type'
p693
S'https://github.com/bluekitchen/btstack/blob/master/src/btstack_event.h#L68'
p694
sS'hci_subevent_le_enhanced_connection_complete_get_perr_addresss'
p695
S'https://github.com/bluekitchen/btstack/blob/master/src/btstack_event.h#L3413'
p696
sS'avrcp_subevent_enable_notification_complete_get_notification_id'
p697
S'https://github.com/bluekitchen/btstack/blob/master/src/btstack_event.h#L5297'
p698
sS'hci_subevent_le_remote_connection_parameter_request_get_interval_min'
p699
S'https://github.com/bluekitchen/btstack/blob/master/src/btstack_event.h#L3238'
p700
sS'de_add_uuid128'
p701
S'https://github.com/bluekitchen/btstack/blob/master/src/classic/sdp_util.h#L94'
p702
sS'hfp_hf_activate_voice_recognition_notification'
p703
S'https://github.com/bluekitchen/btstack/blob/master/src/classic/hfp_hf.h#L319'
p704
sS'gap_ssp_passkey_response'
p705
S'https://github.com/bluekitchen/btstack/blob/master/src/gap.h#L436'
p706
sS'hfp_subevent_subscriber_number_information_get_bnip_type'
p707
S'https://github.com/bluekitchen/btstack/blob/master/src/btstack_event.h#L3905'
p708
sS'big_endian_store_16'
p709
S'https://github.com/bluekitchen/btstack/blob/master/src/btstack_util.h#L129'
p710
sS'avrcp_subevent_now_playing_info_get_track'
p711
S'https://github.com/bluekitchen/btstack/blob/master/src/btstack_event.h#L4955'
p712
sS'btstack_linked_list_remove'
p713
S'https://github.com/bluekitchen/btstack/blob/master/src/btstack_linked_list.h#L73'
p714
sS'avrcp_subevent_connection_established_get_status'
p715
S'https://github.com/bluekitchen/btstack/blob/master/src/btstack_event.h#L4899'
p716
sS'hci_event_remote_name_request_complete_get_status'
p717
S'https://github.com/bluekitchen/btstack/blob/master/src/btstack_event.h#L353'
p718
sS'gap_request_security_level'
p719
S'https://github.com/bluekitchen/btstack/blob/master/src/gap.h#L191'
p720
sS'l2cap_le_can_send_now'
p721
S'https://github.com/bluekitchen/btstack/blob/master/src/l2cap.h#L562'
p722
sS'bnep_register_service'
p723
S'https://github.com/bluekitchen/btstack/blob/master/src/classic/bnep.h#L213'
p724
sS'hfp_subevent_service_level_connection_established_get_status'
p725
S'https://github.com/bluekitchen/btstack/blob/master/src/btstack_event.h#L3585'
p726
sS'gap_advertisements_enable'
p727
S'https://github.com/bluekitchen/btstack/blob/master/src/gap.h#L262'
p728
sS'hfp_hf_establish_audio_connection'
p729
S'https://github.com/bluekitchen/btstack/blob/master/src/classic/hfp_hf.h#L187'
p730
sS'hci_set_inquiry_mode'
p731
S'https://github.com/bluekitchen/btstack/blob/master/src/hci.h#L908'
p732
sS'gatt_client_write_characteristic_descriptor'
p733
S'https://github.com/bluekitchen/btstack/blob/master/src/ble/gatt_client.h#L324'
p734
sS'hci_can_send_prepared_sco_packet_now'
p735
S'https://github.com/bluekitchen/btstack/blob/master/src/hci.h#L976'
p736
sS'de_get_size_type'
p737
S'https://github.com/bluekitchen/btstack/blob/master/src/classic/sdp_util.h#L79'
p738
sS'hfp_subevent_network_operator_changed_get_network_operator_name'
p739
S'https://github.com/bluekitchen/btstack/blob/master/src/btstack_event.h#L3708'
p740
sS'hci_dump_set_max_packets'
p741
S'https://github.com/bluekitchen/btstack/blob/master/src/hci_dump.h#L80'
p742
sS'hci_event_connection_request_get_bd_addr'
p743
S'https://github.com/bluekitchen/btstack/blob/master/src/btstack_event.h#L278'
p744
sS'hci_event_extended_inquiry_response_get_clock_offset'
p745
S'https://github.com/bluekitchen/btstack/blob/master/src/btstack_event.h#L883'
p746
sS'hfp_subevent_enhanced_call_status_get_bnip_number'
p747
S'https://github.com/bluekitchen/btstack/blob/master/src/btstack_event.h#L3886'
p748
sS'hfp_subevent_service_level_connection_established_get_bd_addr'
p749
S'https://github.com/bluekitchen/btstack/blob/master/src/btstack_event.h#L3603'
p750
sS'rfcomm_send'
p751
S'https://github.com/bluekitchen/btstack/blob/master/src/classic/rfcomm.h#L342'
p752
sS'hci_event_remote_name_request_complete_get_bd_addr'
p753
S'https://github.com/bluekitchen/btstack/blob/master/src/btstack_event.h#L362'
p754
sS'gap_event_inquiry_result_get_class_of_device'
p755
S'https://github.com/bluekitchen/btstack/blob/master/src/btstack_event.h#L2971'
p756
sS'hci_event_command_complete_get_return_parameters'
p757
S'https://github.com/bluekitchen/btstack/blob/master/src/btstack_event.h#L474'
p758
sS'hfp_hf_init_codecs'
p759
S'https://github.com/bluekitchen/btstack/blob/master/src/classic/hfp_hf.h#L79'
p760
sS'pbap_subevent_connection_opened_get_incoming'
p761
S'https://github.com/bluekitchen/btstack/blob/master/src/btstack_event.h#L5484'
p762
sS'hci_set_link_key_db'
p763
S'https://github.com/bluekitchen/btstack/blob/master/src/hci.h#L881'
p764
sS'gatt_client_signed_write_without_response'
p765
S'https://github.com/bluekitchen/btstack/blob/master/src/ble/gatt_client.h#L294'
p766
sS'hci_event_connection_complete_get_status'
p767
S'https://github.com/bluekitchen/btstack/blob/master/src/btstack_event.h#L232'
p768
sS'ancs_client_attribute_name_for_id'
p769
S'https://github.com/bluekitchen/btstack/blob/master/src/ble/ancs_client.h#L52'
p770
sS'l2cap_event_le_incoming_connection_get_remote_cid'
p771
S'https://github.com/bluekitchen/btstack/blob/master/src/btstack_event.h#L1297'
p772
sS'bnep_event_channel_opened_get_remote_address'
p773
S'https://github.com/bluekitchen/btstack/blob/master/src/btstack_event.h#L2217'
p774
sS'hci_event_pbap_meta_get_subevent_code'
p775
S'https://github.com/bluekitchen/btstack/blob/master/src/btstack_event.h#L133'
p776
sS'hci_subevent_le_connection_update_complete_get_supervision_timeout'
p777
S'https://github.com/bluekitchen/btstack/blob/master/src/btstack_event.h#L3163'
p778
sS'hci_event_inquiry_result_get_num_responses'
p779
S'https://github.com/bluekitchen/btstack/blob/master/src/btstack_event.h#L168'
p780
sS'hfp_hf_enable_report_extended_audio_gateway_error_result_code'
p781
S'https://github.com/bluekitchen/btstack/blob/master/src/classic/hfp_hf.h#L172'
p782
sS'hfp_ag_terminate_call'
p783
S'https://github.com/bluekitchen/btstack/blob/master/src/classic/hfp_ag.h#L184'
p784
sS'hci_register_acl_packet_handler'
p785
S'https://github.com/bluekitchen/btstack/blob/master/src/hci.h#L932'
p786
sS'rfcomm_event_can_send_now_get_rfcomm_cid'
p787
S'https://github.com/bluekitchen/btstack/blob/master/src/btstack_event.h#L1577'
p788
sS'bnep_event_channel_closed_get_remote_address'
p789
S'https://github.com/bluekitchen/btstack/blob/master/src/btstack_event.h#L2254'
p790
sS'hci_event_disconnection_complete_get_connection_handle'
p791
S'https://github.com/bluekitchen/btstack/blob/master/src/btstack_event.h#L315'
p792
sS'l2cap_event_can_send_now_get_local_cid'
p793
S'https://github.com/bluekitchen/btstack/blob/master/src/btstack_event.h#L1242'
p794
sS'hsp_hs_send_result'
p795
S'https://github.com/bluekitchen/btstack/blob/master/src/classic/hsp_hs.h#L171'
p796
sS'l2cap_le_send_data'
p797
S'https://github.com/bluekitchen/btstack/blob/master/src/l2cap.h#L579'
p798
sS'hfp_subevent_calling_line_identification_notification_get_type'
p799
S'https://github.com/bluekitchen/btstack/blob/master/src/btstack_event.h#L3822'
p800
sS'gatt_client_write_long_characteristic_descriptor_using_descriptor_handle'
p801
S'https://github.com/bluekitchen/btstack/blob/master/src/ble/gatt_client.h#L327'
p802
sS'gatt_client_characteristic_descriptor_t'
p803
S'https://github.com/bluekitchen/btstack/blob/master/src/ble/gatt_client.h#L209'
p804
sS'gap_le_get_own_address'
p805
S'https://github.com/bluekitchen/btstack/blob/master/src/gap.h#L469'
p806
sS'hfp_subevent_extended_audio_gateway_error_get_error'
p807
S'https://github.com/bluekitchen/btstack/blob/master/src/btstack_event.h#L3718'
p808
sS'hci_subevent_le_connection_complete_get_supervision_timeout'
p809
S'https://github.com/bluekitchen/btstack/blob/master/src/btstack_event.h#L3108'
p810
sS'avdtp_subevent_signaling_media_codec_sbc_configuration_get_min_bitpool_value'
p811
S'https://github.com/bluekitchen/btstack/blob/master/src/btstack_event.h#L4419'
p812
sS'reverse_24'
p813
S'https://github.com/bluekitchen/btstack/blob/master/src/btstack_util.h#L172'
p814
sS'gap_pin_code_negative'
p815
S'https://github.com/bluekitchen/btstack/blob/master/src/gap.h#L428'
p816
sS'avrcp_subevent_shuffle_and_repeat_mode_get_shuffle_mode'
p817
S'https://github.com/bluekitchen/btstack/blob/master/src/btstack_event.h#L5082'
p818
sS'gap_set_local_name'
p819
S'https://github.com/bluekitchen/btstack/blob/master/src/gap.h#L130'
p820
sS'little_endian_store_32'
p821
S'https://github.com/bluekitchen/btstack/blob/master/src/btstack_util.h#L111'
p822
sS'gatt_client_init'
p823
S'https://github.com/bluekitchen/btstack/blob/master/src/ble/gatt_client.h#L214'
p824
sS'gap_discoverable_control'
p825
S'https://github.com/bluekitchen/btstack/blob/master/src/gap.h#L368'
p826
sS'gatt_client_execute_write'
p827
S'https://github.com/bluekitchen/btstack/blob/master/src/ble/gatt_client.h#L358'
p828
sS'sm_just_works_confirm'
p829
S'https://github.com/bluekitchen/btstack/blob/master/src/ble/sm.h#L177'
p830
sS'avdtp_subevent_signaling_media_codec_other_configuration_get_avdtp_cid'
p831
S'https://github.com/bluekitchen/btstack/blob/master/src/btstack_event.h#L4438'
p832
sS'bnep_set_required_security_level'
p833
S'https://github.com/bluekitchen/btstack/blob/master/src/classic/bnep.h#L198'
p834
sS'goep_subevent_connection_opened_get_incoming'
p835
S'https://github.com/bluekitchen/btstack/blob/master/src/btstack_event.h#L5418'
p836
sS'sm_event_identity_resolving_started_get_address'
p837
S'https://github.com/bluekitchen/btstack/blob/master/src/btstack_event.h#L2624'
p838
sS'avrcp_subevent_player_application_value_response_get_avrcp_cid'
p839
S'https://github.com/bluekitchen/btstack/blob/master/src/btstack_event.h#L5363'
p840
sS'de_dump_data_element'
p841
S'https://github.com/bluekitchen/btstack/blob/master/src/classic/sdp_util.h#L77'
p842
sS'hci_event_synchronous_connection_complete_get_bd_addr'
p843
S'https://github.com/bluekitchen/btstack/blob/master/src/btstack_event.h#L774'
p844
sS'hci_event_user_confirmation_request_get_bd_addr'
p845
S'https://github.com/bluekitchen/btstack/blob/master/src/btstack_event.h#L921'
p846
sS'avdtp_subevent_signaling_media_codec_other_configuration_get_media_codec_information'
p847
S'https://github.com/bluekitchen/btstack/blob/master/src/btstack_event.h#L4501'
p848
sS'gap_ssp_confirmation_response'
p849
S'https://github.com/bluekitchen/btstack/blob/master/src/gap.h#L452'
p850
sS'bnep_event_channel_opened_get_destination_uuid'
p851
S'https://github.com/bluekitchen/btstack/blob/master/src/btstack_event.h#L2199'
p852
sS'de_get_element_type'
p853
S'https://github.com/bluekitchen/btstack/blob/master/src/classic/sdp_util.h#L80'
p854
sS'hsp_ag_set_microphone_gain'
p855
S'https://github.com/bluekitchen/btstack/blob/master/src/classic/hsp_ag.h#L132'
p856
sS'reverse_56'
p857
S'https://github.com/bluekitchen/btstack/blob/master/src/btstack_util.h#L174'
p858
sS'hsp_hs_disconnect'
p859
S'https://github.com/bluekitchen/btstack/blob/master/src/classic/hsp_hs.h#L109'
p860
sS'avrcp_subevent_enable_notification_complete_get_command_type'
p861
S'https://github.com/bluekitchen/btstack/blob/master/src/btstack_event.h#L5288'
p862
sS'bnep_unregister_service'
p863
S'https://github.com/bluekitchen/btstack/blob/master/src/classic/bnep.h#L218'
p864
sS'sdp_set_attribute_value_for_attribute_id'
p865
S'https://github.com/bluekitchen/btstack/blob/master/src/classic/sdp_util.h#L113'
p866
sS'le_device_db_count'
p867
S'https://github.com/bluekitchen/btstack/blob/master/src/ble/le_device_db.h#L90'
p868
sS'le_device_db_local_csrk_set'
p869
S'https://github.com/bluekitchen/btstack/blob/master/src/ble/le_device_db.h#L132'
p870
sS'a2dp_subevent_stream_released_get_local_seid'
p871
S'https://github.com/bluekitchen/btstack/blob/master/src/btstack_event.h#L4889'
p872
sS'l2cap_release_packet_buffer'
p873
S'https://github.com/bluekitchen/btstack/blob/master/src/l2cap.h#L495'
p874
sS'hfp_ag_call_dropped'
p875
S'https://github.com/bluekitchen/btstack/blob/master/src/classic/hfp_ag.h#L294'
p876
sS'gatt_event_notification_get_value'
p877
S'https://github.com/bluekitchen/btstack/blob/master/src/btstack_event.h#L1956'
p878
sS'avdtp_subevent_signaling_media_codec_other_configuration_get_local_seid'
p879
S'https://github.com/bluekitchen/btstack/blob/master/src/btstack_event.h#L4447'
p880
sS'gatt_client_discover_primary_services'
p881
S'https://github.com/bluekitchen/btstack/blob/master/src/ble/gatt_client.h#L229'
p882
sS'hfp_hf_deactivate_echo_canceling_and_noise_reduction'
p883
S'https://github.com/bluekitchen/btstack/blob/master/src/classic/hfp_hf.h#L313'
p884
sS'hci_get_sco_packet_length'
p885
S'https://github.com/bluekitchen/btstack/blob/master/src/hci.h#L959'
p886
sS'hfp_ag_set_use_in_band_ring_tone'
p887
S'https://github.com/bluekitchen/btstack/blob/master/src/classic/hfp_ag.h#L125'
p888
sS'l2cap_event_le_channel_opened_get_status'
p889
S'https://github.com/bluekitchen/btstack/blob/master/src/btstack_event.h#L1316'
p890
sS'avdtp_subevent_signaling_media_codec_sbc_capability_get_local_seid'
p891
S'https://github.com/bluekitchen/btstack/blob/master/src/btstack_event.h#L4165'
p892
sS'avdtp_subevent_signaling_accept_get_signal_identifier'
p893
S'https://github.com/bluekitchen/btstack/blob/master/src/btstack_event.h#L4006'
p894
sS'hci_send_sco_packet_buffer'
p895
S'https://github.com/bluekitchen/btstack/blob/master/src/hci.h#L981'
p896
sS'hci_subevent_le_connection_update_complete_get_conn_latency'
p897
S'https://github.com/bluekitchen/btstack/blob/master/src/btstack_event.h#L3154'
p898
sS'sdp_event_query_attribute_byte_get_data'
p899
S'https://github.com/bluekitchen/btstack/blob/master/src/btstack_event.h#L1652'
p900
sS'hfp_hf_send_dtmf_code'
p901
S'https://github.com/bluekitchen/btstack/blob/master/src/classic/hfp_hf.h#L346'
p902
sS'sdp_traversal_match_pattern'
p903
S'https://github.com/bluekitchen/btstack/blob/master/src/classic/sdp_util.h#L118'
p904
sS'gatt_client_read_long_characteristic_descriptor_using_descriptor_handle'
p905
S'https://github.com/bluekitchen/btstack/blob/master/src/ble/gatt_client.h#L318'
p906
sS'hci_set_sco_voice_setting'
p907
S'https://github.com/bluekitchen/btstack/blob/master/src/hci.h#L896'
p908
sS'hsp_hs_send_button_press'
p909
S'https://github.com/bluekitchen/btstack/blob/master/src/classic/hsp_hs.h#L115'
p910
sS'sdp_filter_attributes_in_attributeIDList'
p911
S'https://github.com/bluekitchen/btstack/blob/master/src/classic/sdp_util.h#L116'
p912
sS'ancs_subevent_client_notification_get_text'
p913
S'https://github.com/bluekitchen/btstack/blob/master/src/btstack_event.h#L3965'
p914
sS'att_server_can_send_packet_now'
p915
S'https://github.com/bluekitchen/btstack/blob/master/src/ble/att_server.h#L71'
p916
sS'avdtp_subevent_signaling_media_codec_sbc_capability_get_max_bitpool_value'
p917
S'https://github.com/bluekitchen/btstack/blob/master/src/btstack_event.h#L4246'
p918
sS'little_endian_read_16'
p919
S'https://github.com/bluekitchen/btstack/blob/master/src/btstack_util.h#L100'
p920
sS'hci_event_synchronous_connection_complete_get_transmission_interval'
p921
S'https://github.com/bluekitchen/btstack/blob/master/src/btstack_event.h#L792'
p922
sS'hfp_subevent_audio_connection_established_get_handle'
p923
S'https://github.com/bluekitchen/btstack/blob/master/src/btstack_event.h#L3623'
p924
sS'sm_event_keypress_notification_get_action'
p925
S'https://github.com/bluekitchen/btstack/blob/master/src/btstack_event.h#L2801'
p926
sS'gatt_client_reliable_write_long_value_of_characteristic'
p927
S'https://github.com/bluekitchen/btstack/blob/master/src/ble/gatt_client.h#L306'
p928
sS'big_endian_read_24'
p929
S'https://github.com/bluekitchen/btstack/blob/master/src/btstack_util.h#L120'
p930
sS'bnep_event_channel_timeout_get_source_uuid'
p931
S'https://github.com/bluekitchen/btstack/blob/master/src/btstack_event.h#L2273'
p932
sS'hci_dump_open'
p933
S'https://github.com/bluekitchen/btstack/blob/master/src/hci_dump.h#L75'
p934
sS'des_iterator_get_type'
p935
S'https://github.com/bluekitchen/btstack/blob/master/src/classic/sdp_util.h#L105'
p936
sS'hfp_subevent_response_and_hold_status_get_value'
p937
S'https://github.com/bluekitchen/btstack/blob/master/src/btstack_event.h#L3924'
p938
sS'hfp_ag_set_clip'
p939
S'https://github.com/bluekitchen/btstack/blob/master/src/classic/hfp_ag.h#L261'
p940
sS'avrcp_subevent_now_playing_info_get_artist_len'
p941
S'https://github.com/bluekitchen/btstack/blob/master/src/btstack_event.h#L5000'
p942
sS'hci_transport_config_uart_t'
p943
S'https://github.com/bluekitchen/btstack/blob/master/src/hci_transport.h#L129'
p944
sS'sdp_event_query_service_record_handle_get_record_handle'
p945
S'https://github.com/bluekitchen/btstack/blob/master/src/btstack_event.h#L1717'
p946
sS'gatt_event_long_characteristic_descriptor_query_result_get_handle'
p947
S'https://github.com/bluekitchen/btstack/blob/master/src/btstack_event.h#L2046'
p948
sS'hid_subevent_connection_opened_get_hid_cid'
p949
S'https://github.com/bluekitchen/btstack/blob/master/src/btstack_event.h#L5523'
p950
sS'avdtp_subevent_signaling_sep_found_get_avdtp_cid'
p951
S'https://github.com/bluekitchen/btstack/blob/master/src/btstack_event.h#L4110'
p952
sS'rfcomm_disconnect'
p953
S'https://github.com/bluekitchen/btstack/blob/master/src/classic/rfcomm.h#L282'
p954
sS'a2dp_subevent_signaling_media_codec_sbc_configuration_get_a2dp_cid'
p955
S'https://github.com/bluekitchen/btstack/blob/master/src/btstack_event.h#L4614'
p956
sS'hfp_ag_notify_incoming_call_waiting'
p957
S'https://github.com/bluekitchen/btstack/blob/master/src/classic/hfp_ag.h#L232'
p958
sS'a2dp_subevent_signaling_media_codec_other_configuration_get_a2dp_cid'
p959
S'https://github.com/bluekitchen/btstack/blob/master/src/btstack_event.h#L4732'
p960
sS'gap_ssp_set_auto_accept'
p961
S'https://github.com/bluekitchen/btstack/blob/master/src/gap.h#L177'
p962
sS'avrcp_subevent_play_status_get_command_type'
p963
S'https://github.com/bluekitchen/btstack/blob/master/src/btstack_event.h#L5101'
p964
sS'hfp_subevent_audio_connection_established_get_bd_addr'
p965
S'https://github.com/bluekitchen/btstack/blob/master/src/btstack_event.h#L3632'
p966
sS'hci_event_role_change_get_bd_addr'
p967
S'https://github.com/bluekitchen/btstack/blob/master/src/btstack_event.h#L531'
p968
sS'hfp_ag_init_supported_features'
p969
S'https://github.com/bluekitchen/btstack/blob/master/src/classic/hfp_ag.h#L91'
p970
sS'hci_event_synchronous_connection_complete_get_handle'
p971
S'https://github.com/bluekitchen/btstack/blob/master/src/btstack_event.h#L765'
p972
sS'gatt_client_discover_characteristics_for_service_by_uuid16'
p973
S'https://github.com/bluekitchen/btstack/blob/master/src/ble/gatt_client.h#L252'
p974
sS'hci_event_connection_request_get_link_type'
p975
S'https://github.com/bluekitchen/btstack/blob/master/src/btstack_event.h#L296'
p976
sS'hci_event_ancs_meta_get_subevent_code'
p977
S'https://github.com/bluekitchen/btstack/blob/master/src/btstack_event.h#L77'
p978
sS'hfp_ag_init_hf_indicators'
p979
S'https://github.com/bluekitchen/btstack/blob/master/src/classic/hfp_ag.h#L105'
p980
sS'gap_start_scan'
p981
S'https://github.com/bluekitchen/btstack/blob/master/src/gap.h#L205'
p982
sS'sm_authenticated'
p983
S'https://github.com/bluekitchen/btstack/blob/master/src/ble/sm.h#L212'
p984
sS'rfcomm_get_max_frame_size'
p985
S'https://github.com/bluekitchen/btstack/blob/master/src/classic/rfcomm.h#L386'
p986
sS'hfp_ag_outgoing_call_ringing'
p987
S'https://github.com/bluekitchen/btstack/blob/master/src/classic/hfp_ag.h#L284'
p988
sS'l2cap_event_incoming_connection_get_local_cid'
p989
S'https://github.com/bluekitchen/btstack/blob/master/src/btstack_event.h#L1158'
p990
sS'hfp_subevent_microphone_volume_get_gain'
p991
S'https://github.com/bluekitchen/btstack/blob/master/src/btstack_event.h#L3793'
p992
sS'le_device_db_local_counter_set'
p993
S'https://github.com/bluekitchen/btstack/blob/master/src/ble/le_device_db.h#L181'
p994
sS'a2dp_subevent_stream_suspended_get_a2dp_cid'
p995
S'https://github.com/bluekitchen/btstack/blob/master/src/btstack_event.h#L4861'
p996
sS'hsp_hs_set_microphone_gain'
p997
S'https://github.com/bluekitchen/btstack/blob/master/src/classic/hsp_hs.h#L142'
p998
sS'avrcp_subevent_shuffle_and_repeat_mode_get_command_type'
p999
S'https://github.com/bluekitchen/btstack/blob/master/src/btstack_event.h#L5064'
p1000
sS'hfp_subevent_ag_indicator_status_changed_get_indicator_name'
p1001
S'https://github.com/bluekitchen/btstack/blob/master/src/btstack_event.h#L3680'
p1002
sS'avdtp_subevent_signaling_media_codec_sbc_configuration_get_max_bitpool_value'
p1003
S'https://github.com/bluekitchen/btstack/blob/master/src/btstack_event.h#L4428'
p1004
sS'sm_numeric_comparison_confirm'
p1005
S'https://github.com/bluekitchen/btstack/blob/master/src/ble/sm.h#L183'
p1006
sS'bnep_event_channel_opened_get_source_uuid'
p1007
S'https://github.com/bluekitchen/btstack/blob/master/src/btstack_event.h#L2190'
p1008
sS'hfp_hf_init'
p1009
S'https://github.com/bluekitchen/btstack/blob/master/src/classic/hfp_hf.h#L72'
p1010
sS'hsp_subevent_ag_indication_get_value'
p1011
S'https://github.com/bluekitchen/btstack/blob/master/src/btstack_event.h#L3575'
p1012
sS'hfp_hf_connect_calls'
p1013
S'https://github.com/bluekitchen/btstack/blob/master/src/classic/hfp_hf.h#L239'
p1014
sS'hci_event_mode_change_event_get_interval'
p1015
S'https://github.com/bluekitchen/btstack/blob/master/src/btstack_event.h#L577'
p1016
sS'rfcomm_accept_connection'
p1017
S'https://github.com/bluekitchen/btstack/blob/master/src/classic/rfcomm.h#L311'
p1018
sS'sm_event_authorization_request_get_address'
p1019
S'https://github.com/bluekitchen/btstack/blob/master/src/btstack_event.h#L2741'
p1020
sS'hfp_hf_user_busy'
p1021
S'https://github.com/bluekitchen/btstack/blob/master/src/classic/hfp_hf.h#L214'
p1022
sS'reverse_256'
p1023
S'https://github.com/bluekitchen/btstack/blob/master/src/btstack_util.h#L177'
p1024
sS'sdp_service_search_pattern_for_uuid16'
p1025
S'https://github.com/bluekitchen/btstack/blob/master/src/classic/sdp_util.h#L124'
p1026
sS'gap_get_bondable_mode'
p1027
S'https://github.com/bluekitchen/btstack/blob/master/src/gap.h#L155'
p1028
sS'avdtp_subevent_signaling_media_codec_sbc_configuration_get_avdtp_cid'
p1029
S'https://github.com/bluekitchen/btstack/blob/master/src/btstack_event.h#L4320'
p1030
sS'hfp_hf_query_operator_selection'
p1031
S'https://github.com/bluekitchen/btstack/blob/master/src/classic/hfp_hf.h#L162'
p1032
sS'sdp_event_query_complete_get_status'
p1033
S'https://github.com/bluekitchen/btstack/blob/master/src/btstack_event.h#L1587'
p1034
sS'des_iterator_get_element'
p1035
S'https://github.com/bluekitchen/btstack/blob/master/src/classic/sdp_util.h#L107'
p1036
sS'gatt_event_notification_get_value_length'
p1037
S'https://github.com/bluekitchen/btstack/blob/master/src/btstack_event.h#L1947'
p1038
sS'gatt_event_query_complete_get_status'
p1039
S'https://github.com/bluekitchen/btstack/blob/master/src/btstack_event.h#L1737'
p1040
sS'hci_set_hardware_error_callback'
p1041
S'https://github.com/bluekitchen/btstack/blob/master/src/hci.h#L886'
p1042
sS'a2dp_subevent_signaling_media_codec_sbc_configuration_get_allocation_method'
p1043
S'https://github.com/bluekitchen/btstack/blob/master/src/btstack_event.h#L4704'
p1044
sS'hsp_ag_connect'
p1045
S'https://github.com/bluekitchen/btstack/blob/master/src/classic/hsp_ag.h#L98'
p1046
sS'btstack_atoi'
p1047
S'https://github.com/bluekitchen/btstack/blob/master/src/btstack_util.h#L254'
p1048
sS'hfp_subevent_enhanced_call_status_get_clcc_status'
p1049
S'https://github.com/bluekitchen/btstack/blob/master/src/btstack_event.h#L3859'
p1050
sS'indicator'
p1051
S'https://github.com/bluekitchen/btstack/blob/master/src/classic/hfp_hf.h#L305'
p1052
sS'hci_subevent_le_read_local_p256_public_key_complete_get_dhkey_x'
p1053
S'https://github.com/bluekitchen/btstack/blob/master/src/btstack_event.h#L3330'
p1054
sS'btstack_linked_list_iterator_init'
p1055
S'https://github.com/bluekitchen/btstack/blob/master/src/btstack_linked_list.h#L89'
p1056
sS'avdtp_subevent_signaling_media_codec_sbc_capability_get_min_bitpool_value'
p1057
S'https://github.com/bluekitchen/btstack/blob/master/src/btstack_event.h#L4237'
p1058
sS'hci_subevent_le_data_length_change_get_max_rx_time'
p1059
S'https://github.com/bluekitchen/btstack/blob/master/src/btstack_event.h#L3311'
p1060
sS'att_server_notify'
p1061
S'https://github.com/bluekitchen/btstack/blob/master/src/ble/att_server.h#L97'
p1062
sS'gatt_client_characteristic_t'
p1063
S'https://github.com/bluekitchen/btstack/blob/master/src/ble/gatt_client.h#L203'
p1064
sS'gap_event_inquiry_complete_get_status'
p1065
S'https://github.com/bluekitchen/btstack/blob/master/src/btstack_event.h#L3035'
p1066
sS'a2dp_subevent_signaling_media_codec_sbc_configuration_get_block_length'
p1067
S'https://github.com/bluekitchen/btstack/blob/master/src/btstack_event.h#L4686'
p1068
sS'rfcomm_event_incoming_connection_get_rfcomm_cid'
p1069
S'https://github.com/bluekitchen/btstack/blob/master/src/btstack_event.h#L1529'
p1070
sS'hfp_ag_send_phone_number_for_voice_tag'
p1071
S'https://github.com/bluekitchen/btstack/blob/master/src/classic/hfp_ag.h#L248'
p1072
sS'gatt_client_service_t'
p1073
S'https://github.com/bluekitchen/btstack/blob/master/src/ble/gatt_client.h#L194'
p1074
sS'btstack_linked_list_iterator_t'
p1075
S'https://github.com/bluekitchen/btstack/blob/master/src/btstack_linked_list.h#L61'
p1076
sS'bnep_event_can_send_now_get_bnep_cid'
p1077
S'https://github.com/bluekitchen/btstack/blob/master/src/btstack_event.h#L2310'
p1078
sS'l2cap_event_le_channel_opened_get_psm'
p1079
S'https://github.com/bluekitchen/btstack/blob/master/src/btstack_event.h#L1361'
p1080
sS'bnep_event_channel_closed_get_source_uuid'
p1081
S'https://github.com/bluekitchen/btstack/blob/master/src/btstack_event.h#L2236'
p1082
sS'a2dp_subevent_signaling_media_codec_sbc_configuration_get_int_seid'
p1083
S'https://github.com/bluekitchen/btstack/blob/master/src/btstack_event.h#L4623'
p1084
sS'le_device_db_info'
p1085
S'https://github.com/bluekitchen/btstack/blob/master/src/ble/le_device_db.h#L98'
p1086
sS'gap_set_extended_inquiry_response'
p1087
S'https://github.com/bluekitchen/btstack/blob/master/src/gap.h#L137'
p1088
sS'avrcp_subevent_now_playing_info_get_title'
p1089
S'https://github.com/bluekitchen/btstack/blob/master/src/btstack_event.h#L4991'
p1090
sS'pan_create_nap_sdp_record'
p1091
S'https://github.com/bluekitchen/btstack/blob/master/src/classic/pan.h#L102'
p1092
sS'hfp_hf_release_call_with_index'
p1093
S'https://github.com/bluekitchen/btstack/blob/master/src/classic/hfp_hf.h#L369'
p1094
sS'a2dp_subevent_signaling_media_codec_other_configuration_get_media_type'
p1095
S'https://github.com/bluekitchen/btstack/blob/master/src/btstack_event.h#L4768'
p1096
sS'sm_request_pairing'
p1097
S'https://github.com/bluekitchen/btstack/blob/master/src/ble/sm.h#L225'
p1098
sS'gap_auto_connection_stop'
p1099
S'https://github.com/bluekitchen/btstack/blob/master/src/gap.h#L348'
p1100
sS'btstack_min'
p1101
S'https://github.com/bluekitchen/btstack/blob/master/src/btstack_util.h#L83'
p1102
sS'sm_event_passkey_display_number_get_addr_type'
p1103
S'https://github.com/bluekitchen/btstack/blob/master/src/btstack_event.h#L2417'
p1104
sS'le_device_db_remove'
p1105
S'https://github.com/bluekitchen/btstack/blob/master/src/ble/le_device_db.h#L189'
p1106
sS'l2cap_event_channel_closed_get_local_cid'
p1107
S'https://github.com/bluekitchen/btstack/blob/master/src/btstack_event.h#L1121'
p1108
sS'sdp_get_attribute_value_for_attribute_id'
p1109
S'https://github.com/bluekitchen/btstack/blob/master/src/classic/sdp_util.h#L112'
p1110
sS'gatt_client_write_long_characteristic_descriptor_using_descriptor_handle_with_offset'
p1111
S'https://github.com/bluekitchen/btstack/blob/master/src/ble/gatt_client.h#L328'
p1112
sS'gatt_client_read_long_value_of_characteristic_using_value_handle'
p1113
S'https://github.com/bluekitchen/btstack/blob/master/src/ble/gatt_client.h#L276'
p1114
sS'l2cap_event_channel_opened_get_address'
p1115
S'https://github.com/bluekitchen/btstack/blob/master/src/btstack_event.h#L1039'
p1116
sS'l2cap_event_channel_opened_get_remote_cid'
p1117
S'https://github.com/bluekitchen/btstack/blob/master/src/btstack_event.h#L1075'
p1118
sS'hci_set_control'
p1119
S'https://github.com/bluekitchen/btstack/blob/master/src/hci.h#L876'
p1120
sS'gap_random_address_set_update_period'
p1121
S'https://github.com/bluekitchen/btstack/blob/master/src/gap.h#L227'
p1122
sS'le_device_db_remote_counter_set'
p1123
S'https://github.com/bluekitchen/btstack/blob/master/src/ble/le_device_db.h#L167'
p1124
sS'btstack_run_loop_get_timer_context'
p1125
S'https://github.com/bluekitchen/btstack/blob/master/src/btstack_run_loop.h#L139'
p1126
sS'l2cap_create_channel'
p1127
S'https://github.com/bluekitchen/btstack/blob/master/src/l2cap.h#L402'
p1128
sS'hci_event_encryption_change_get_encryption_enabled'
p1129
S'https://github.com/bluekitchen/btstack/blob/master/src/btstack_event.h#L399'
p1130
sS'avrcp_subevent_notification_playback_status_changed_get_avrcp_cid'
p1131
S'https://github.com/bluekitchen/btstack/blob/master/src/btstack_event.h#L5138'
p1132
sS'avrcp_subevent_notification_volume_changed_get_absolute_volume'
p1133
S'https://github.com/bluekitchen/btstack/blob/master/src/btstack_event.h#L5241'
p1134
sS'avdtp_subevent_signaling_reject_get_avdtp_cid'
p1135
S'https://github.com/bluekitchen/btstack/blob/master/src/btstack_event.h#L4016'
p1136
sS'btstack_run_loop_set_timer'
p1137
S'https://github.com/bluekitchen/btstack/blob/master/src/btstack_run_loop.h#L124'
p1138
sS'hfp_hf_join_held_call'
p1139
S'https://github.com/bluekitchen/btstack/blob/master/src/classic/hfp_hf.h#L232'
p1140
sS'hsp_ag_stop_ringing'
p1141
S'https://github.com/bluekitchen/btstack/blob/master/src/classic/hsp_ag.h#L148'
p1142
sS'gap_set_bondable_mode'
p1143
S'https://github.com/bluekitchen/btstack/blob/master/src/gap.h#L149'
p1144
sS'hid_subevent_connection_opened_get_status'
p1145
S'https://github.com/bluekitchen/btstack/blob/master/src/btstack_event.h#L5532'
p1146
sS'gatt_client_read_long_value_of_characteristic_using_value_handle_with_offset'
p1147
S'https://github.com/bluekitchen/btstack/blob/master/src/ble/gatt_client.h#L277'
p1148
sS'hci_event_transport_sleep_mode_get_active'
p1149
S'https://github.com/bluekitchen/btstack/blob/master/src/btstack_event.h#L1010'
p1150
sS'gatt_client_write_value_of_characteristic'
p1151
S'https://github.com/bluekitchen/btstack/blob/master/src/ble/gatt_client.h#L299'
p1152
sS'gatt_client_discover_characteristics_for_handle_range_by_uuid16'
p1153
S'https://github.com/bluekitchen/btstack/blob/master/src/ble/gatt_client.h#L250'
p1154
sS'avdtp_subevent_signaling_media_codec_other_capability_get_media_codec_type'
p1155
S'https://github.com/bluekitchen/btstack/blob/master/src/btstack_event.h#L4292'
p1156
sS'gap_auto_connection_start'
p1157
S'https://github.com/bluekitchen/btstack/blob/master/src/gap.h#L340'
p1158
sS'btstack_max'
p1159
S'https://github.com/bluekitchen/btstack/blob/master/src/btstack_util.h#L91'
p1160
sS'crc8_calc'
p1161
S'https://github.com/bluekitchen/btstack/blob/master/src/classic/rfcomm.h#L401'
p1162
sS'avrcp_subevent_shuffle_and_repeat_mode_get_avrcp_cid'
p1163
S'https://github.com/bluekitchen/btstack/blob/master/src/btstack_event.h#L5055'
p1164
sS'hci_register_sco_packet_handler'
p1165
S'https://github.com/bluekitchen/btstack/blob/master/src/hci.h#L937'
p1166
sS'hsp_subevent_hs_command_get_value_length'
p1167
S'https://github.com/bluekitchen/btstack/blob/master/src/btstack_event.h#L3547'
p1168
sS'sm_event_just_works_cancel_get_address'
p1169
S'https://github.com/bluekitchen/btstack/blob/master/src/btstack_event.h#L2396'
p1170
sS'ancs_subevent_client_connected_get_handle'
p1171
S'https://github.com/bluekitchen/btstack/blob/master/src/btstack_event.h#L3935'
p1172
sS'hci_transport_h5_instance'
p1173
S'https://github.com/bluekitchen/btstack/blob/master/src/hci_transport.h#L144'
p1174
sS'l2cap_register_service'
p1175
S'https://github.com/bluekitchen/btstack/blob/master/src/l2cap.h#L437'
p1176
sS'hci_event_inquiry_result_get_clock_offset'
p1177
S'https://github.com/bluekitchen/btstack/blob/master/src/btstack_event.h#L222'
p1178
sS'hci_subevent_le_enhanced_connection_complete_get_conn_latency'
p1179
S'https://github.com/bluekitchen/btstack/blob/master/src/btstack_event.h#L3449'
p1180
sS'gatt_event_characteristic_descriptor_query_result_get_descriptor_length'
p1181
S'https://github.com/bluekitchen/btstack/blob/master/src/btstack_event.h#L2025'
p1182
sS'uuid128_to_str'
p1183
S'https://github.com/bluekitchen/btstack/blob/master/src/btstack_util.h#L218'
p1184
sS'bnep_event_service_registered_get_service_uuid'
p1185
S'https://github.com/bluekitchen/btstack/blob/master/src/btstack_event.h#L2162'
p1186
sS'hci_can_send_sco_packet_now'
p1187
S'https://github.com/bluekitchen/btstack/blob/master/src/hci.h#L971'
p1188
sS'gatt_event_included_service_query_result_get_include_handle'
p1189
S'https://github.com/bluekitchen/btstack/blob/master/src/btstack_event.h#L1800'
p1190
sS'hci_subevent_le_remote_connection_parameter_request_get_interval_max'
p1191
S'https://github.com/bluekitchen/btstack/blob/master/src/btstack_event.h#L3247'
p1192
sS'avdtp_subevent_signaling_media_codec_other_configuration_get_media_codec_information_len'
p1193
S'https://github.com/bluekitchen/btstack/blob/master/src/btstack_event.h#L4492'
p1194
sS'hfp_subevent_subscriber_number_information_get_status'
p1195
S'https://github.com/bluekitchen/btstack/blob/master/src/btstack_event.h#L3896'
p1196
sS'gatt_event_characteristic_descriptor_query_result_get_handle'
p1197
S'https://github.com/bluekitchen/btstack/blob/master/src/btstack_event.h#L2007'
p1198
sS'hsp_subevent_audio_connection_complete_get_handle'
p1199
S'https://github.com/bluekitchen/btstack/blob/master/src/btstack_event.h#L3506'
p1200
sS'hfp_ag_accept_held_incoming_call'
p1201
S'https://github.com/bluekitchen/btstack/blob/master/src/classic/hfp_ag.h#L194'
p1202
sS'des_iterator_get_size'
p1203
S'https://github.com/bluekitchen/btstack/blob/master/src/classic/sdp_util.h#L106'
p1204
sS'hfp_subevent_call_waiting_notification_get_type'
p1205
S'https://github.com/bluekitchen/btstack/blob/master/src/btstack_event.h#L3803'
p1206
sS'hsp_ag_register_packet_handler'
p1207
S'https://github.com/bluekitchen/btstack/blob/master/src/classic/hsp_ag.h#L86'
p1208
sS'a2dp_subevent_signaling_media_codec_sbc_configuration_get_media_type'
p1209
S'https://github.com/bluekitchen/btstack/blob/master/src/btstack_event.h#L4650'
p1210
sS'l2cap_event_connection_parameter_update_response_get_handle'
p1211
S'https://github.com/bluekitchen/btstack/blob/master/src/btstack_event.h#L1223'
p1212
sS'hsp_ag_establish_audio_connection'
p1213
S'https://github.com/bluekitchen/btstack/blob/master/src/classic/hsp_ag.h#L117'
p1214
sS'pbap_subevent_connection_closed_get_goep_cid'
p1215
S'https://github.com/bluekitchen/btstack/blob/master/src/btstack_event.h#L5494'
p1216
sS'des_iterator_t'
p1217
S'https://github.com/bluekitchen/btstack/blob/master/src/classic/sdp_util.h#L101'
p1218
sS'hci_dump_enable_log_level'
p1219
S'https://github.com/bluekitchen/btstack/blob/master/src/hci_dump.h#L99'
p1220
sS'l2cap_event_incoming_connection_get_psm'
p1221
S'https://github.com/bluekitchen/btstack/blob/master/src/btstack_event.h#L1149'
p1222
sS'btstack_run_loop_set_data_source_fd'
p1223
S'https://github.com/bluekitchen/btstack/blob/master/src/btstack_run_loop.h#L168'
p1224
sS'hfp_subevent_enhanced_call_status_get_clcc_mpty'
p1225
S'https://github.com/bluekitchen/btstack/blob/master/src/btstack_event.h#L3868'
p1226
sS'sm_use_fixed_ec_keypair'
p1227
S'https://github.com/bluekitchen/btstack/blob/master/src/ble/sm.h#L291'
p1228
sS'hci_event_extended_inquiry_response_get_class_of_device'
p1229
S'https://github.com/bluekitchen/btstack/blob/master/src/btstack_event.h#L874'
p1230
sS'avdtp_subevent_signaling_media_codec_sbc_capability_get_remote_seid'
p1231
S'https://github.com/bluekitchen/btstack/blob/master/src/btstack_event.h#L4174'
p1232
sS'a2dp_subevent_signaling_media_codec_other_configuration_get_int_seid'
p1233
S'https://github.com/bluekitchen/btstack/blob/master/src/btstack_event.h#L4741'
p1234
sS'de_add_number'
p1235
S'https://github.com/bluekitchen/btstack/blob/master/src/classic/sdp_util.h#L91'
p1236
sS'gap_event_security_level_get_security_level'
p1237
S'https://github.com/bluekitchen/btstack/blob/master/src/btstack_event.h#L2869'
p1238
sS'connection'
p1239
S'https://github.com/bluekitchen/btstack/blob/master/src/classic/hfp_hf.h#L103'
p1240
sS'hci_event_pin_code_request_get_bd_addr'
p1241
S'https://github.com/bluekitchen/btstack/blob/master/src/btstack_event.h#L587'
p1242
sS'sm_set_er'
p1243
S'https://github.com/bluekitchen/btstack/blob/master/src/ble/sm.h#L111'
p1244
sS'gatt_event_long_characteristic_value_query_result_get_value_handle'
p1245
S'https://github.com/bluekitchen/btstack/blob/master/src/btstack_event.h#L1890'
p1246
sS'hci_event_a2dp_meta_get_subevent_code'
p1247
S'https://github.com/bluekitchen/btstack/blob/master/src/btstack_event.h#L93'
p1248
sS'hci_event_command_status_get_command_opcode'
p1249
S'https://github.com/bluekitchen/btstack/blob/master/src/btstack_event.h#L502'
p1250
sS'gatt_client_discover_characteristics_for_service_by_uuid128'
p1251
S'https://github.com/bluekitchen/btstack/blob/master/src/ble/gatt_client.h#L253'
p1252
sS'hci_event_extended_inquiry_response_get_num_responses'
p1253
S'https://github.com/bluekitchen/btstack/blob/master/src/btstack_event.h#L838'
p1254
sS'hci_get_sco_voice_setting'
p1255
S'https://github.com/bluekitchen/btstack/blob/master/src/hci.h#L902'
p1256
sS'bnep_event_channel_opened_get_bnep_cid'
p1257
S'https://github.com/bluekitchen/btstack/blob/master/src/btstack_event.h#L2181'
p1258
sS'avrcp_subevent_connection_established_get_bd_addr'
p1259
S'https://github.com/bluekitchen/btstack/blob/master/src/btstack_event.h#L4908'
p1260
sS'sm_send_security_request'
p1261
S'https://github.com/bluekitchen/btstack/blob/master/src/ble/sm.h#L165'
p1262
sS'hsp_subevent_audio_connection_complete_get_status'
p1263
S'https://github.com/bluekitchen/btstack/blob/master/src/btstack_event.h#L3497'
p1264
sS'gap_dedicated_bonding'
p1265
S'https://github.com/bluekitchen/btstack/blob/master/src/gap.h#L186'
p1266
sS'gap_event_advertising_report_get_address_type'
p1267
S'https://github.com/bluekitchen/btstack/blob/master/src/btstack_event.h#L2907'
p1268
sS'avdtp_subevent_signaling_media_codec_sbc_configuration_get_sampling_frequency'
p1269
S'https://github.com/bluekitchen/btstack/blob/master/src/btstack_event.h#L4365'
p1270
sS'sm_event_numeric_comparison_request_get_address'
p1271
S'https://github.com/bluekitchen/btstack/blob/master/src/btstack_event.h#L2555'
p1272
sS'pop'
p1273
S'https://github.com/bluekitchen/btstack/blob/master/src/btstack_linked_list.h#L70'
p1274
sS'avdtp_subevent_signaling_media_codec_other_capability_get_media_codec_information_len'
p1275
S'https://github.com/bluekitchen/btstack/blob/master/src/btstack_event.h#L4301'
p1276
sS'avdtp_subevent_signaling_media_codec_other_configuration_get_media_type'
p1277
S'https://github.com/bluekitchen/btstack/blob/master/src/btstack_event.h#L4474'
p1278
sS'hci_event_disconnection_complete_get_status'
p1279
S'https://github.com/bluekitchen/btstack/blob/master/src/btstack_event.h#L306'
p1280
sS'gap_get_connection_type'
p1281
S'https://github.com/bluekitchen/btstack/blob/master/src/gap.h#L121'
p1282
sS'rfcomm_event_channel_opened_get_server_channel'
p1283
S'https://github.com/bluekitchen/btstack/blob/master/src/btstack_event.h#L1464'
p1284
sS'l2cap_accept_ertm_connection'
p1285
S'https://github.com/bluekitchen/btstack/blob/master/src/l2cap.h#L457'
p1286
sS'btstack_run_loop_set_timer_handler'
p1287
S'https://github.com/bluekitchen/btstack/blob/master/src/btstack_run_loop.h#L129'
p1288
sS'des_iterator_next'
p1289
S'https://github.com/bluekitchen/btstack/blob/master/src/classic/sdp_util.h#L108'
p1290
sS'avdtp_subevent_signaling_accept_get_local_seid'
p1291
S'https://github.com/bluekitchen/btstack/blob/master/src/btstack_event.h#L3997'
p1292
sS'goep_subevent_connection_opened_get_bd_addr'
p1293
S'https://github.com/bluekitchen/btstack/blob/master/src/btstack_event.h#L5400'
p1294
sS'gatt_client_find_included_services_for_service'
p1295
S'https://github.com/bluekitchen/btstack/blob/master/src/ble/gatt_client.h#L240'
p1296
sS'gatt_client_write_characteristic_descriptor_using_descriptor_handle'
p1297
S'https://github.com/bluekitchen/btstack/blob/master/src/ble/gatt_client.h#L325'
p1298
sS'hci_event_mode_change_event_get_status'
p1299
S'https://github.com/bluekitchen/btstack/blob/master/src/btstack_event.h#L550'
p1300
sS'avrcp_subevent_notification_now_playing_content_changed_get_command_type'
p1301
S'https://github.com/bluekitchen/btstack/blob/master/src/btstack_event.h#L5194'
p1302
sS'sm_event_passkey_display_cancel_get_handle'
p1303
S'https://github.com/bluekitchen/btstack/blob/master/src/btstack_event.h#L2447'
p1304
sS'gap_set_scan_parameters'
p1305
S'https://github.com/bluekitchen/btstack/blob/master/src/gap.h#L200'
p1306
sS'hci_send_cmd'
p1307
S'https://github.com/bluekitchen/btstack/blob/master/src/hci.h#L950'
p1308
sS'btstack_linked_list_iterator_next'
p1309
S'https://github.com/bluekitchen/btstack/blob/master/src/btstack_linked_list.h#L91'
p1310
sS'l2cap_event_channel_opened_get_local_cid'
p1311
S'https://github.com/bluekitchen/btstack/blob/master/src/btstack_event.h#L1066'
p1312
sS'char_for_nibble'
p1313
S'https://github.com/bluekitchen/btstack/blob/master/src/btstack_util.h#L185'
p1314
sS'hfp_ag_set_signal_strength'
p1315
S'https://github.com/bluekitchen/btstack/blob/master/src/classic/hfp_ag.h#L306'
p1316
sS'rfcomm_get_outgoing_buffer'
p1317
S'https://github.com/bluekitchen/btstack/blob/master/src/classic/rfcomm.h#L392'
p1318
sS'sm_cmac_general_start'
p1319
S'https://github.com/bluekitchen/btstack/blob/master/src/ble/sm.h#L254'
p1320
sS'hfp_hf_request_phone_number_for_voice_tag'
p1321
S'https://github.com/bluekitchen/btstack/blob/master/src/classic/hfp_hf.h#L355'
p1322
sS'de_get_len'
p1323
S'https://github.com/bluekitchen/btstack/blob/master/src/classic/sdp_util.h#L78'
p1324
sS'le_device_db_encryption_set'
p1325
S'https://github.com/bluekitchen/btstack/blob/master/src/ble/le_device_db.h#L111'
p1326
sS'a2dp_subevent_stream_established_get_remote_seid'
p1327
S'https://github.com/bluekitchen/btstack/blob/master/src/btstack_event.h#L4823'
p1328
sS'a2dp_subevent_streaming_can_send_media_packet_now_get_a2dp_cid'
p1329
S'https://github.com/bluekitchen/btstack/blob/master/src/btstack_event.h#L4595'
p1330
sS'le_device_db_local_csrk_get'
p1331
S'https://github.com/bluekitchen/btstack/blob/master/src/ble/le_device_db.h#L139'
p1332
sS'avrcp_subevent_notification_available_players_changed_get_avrcp_cid'
p1333
S'https://github.com/bluekitchen/btstack/blob/master/src/btstack_event.h#L5204'
p1334
sS'rfcomm_unregister_service'
p1335
S'https://github.com/bluekitchen/btstack/blob/master/src/classic/rfcomm.h#L306'
p1336
sS'l2cap_event_le_channel_opened_get_local_cid'
p1337
S'https://github.com/bluekitchen/btstack/blob/master/src/btstack_event.h#L1370'
p1338
sS'hfp_hf_register_packet_handler'
p1339
S'https://github.com/bluekitchen/btstack/blob/master/src/classic/hfp_hf.h#L99'
p1340
sS'hsp_hs_set_speaker_gain'
p1341
S'https://github.com/bluekitchen/btstack/blob/master/src/classic/hsp_hs.h#L151'
p1342
sS'avdtp_subevent_signaling_accept_get_avdtp_cid'
p1343
S'https://github.com/bluekitchen/btstack/blob/master/src/btstack_event.h#L3988'
p1344
sS'hfp_subevent_transmit_dtmf_codes_get_dtmf'
p1345
S'https://github.com/bluekitchen/btstack/blob/master/src/btstack_event.h#L3752'
p1346
sS'sm_event_authorization_result_get_addr_type'
p1347
S'https://github.com/bluekitchen/btstack/blob/master/src/btstack_event.h#L2762'
p1348
sS'avdtp_subevent_signaling_media_codec_sbc_configuration_get_local_seid'
p1349
S'https://github.com/bluekitchen/btstack/blob/master/src/btstack_event.h#L4329'
p1350
sS'hci_subevent_le_data_length_change_get_max_rx_octets'
p1351
S'https://github.com/bluekitchen/btstack/blob/master/src/btstack_event.h#L3302'
p1352
sS'hsp_ag_start_ringing'
p1353
S'https://github.com/bluekitchen/btstack/blob/master/src/classic/hsp_ag.h#L143'
p1354
sS'hci_init'
p1355
S'https://github.com/bluekitchen/btstack/blob/master/src/hci.h#L866'
p1356
sS'avrcp_subevent_now_playing_info_get_avrcp_cid'
p1357
S'https://github.com/bluekitchen/btstack/blob/master/src/btstack_event.h#L4937'
p1358
sS'att_event_handle_value_indication_complete_get_attribute_handle'
p1359
S'https://github.com/bluekitchen/btstack/blob/master/src/btstack_event.h#L2142'
p1360
sS'avrcp_subevent_enable_notification_complete_get_avrcp_cid'
p1361
S'https://github.com/bluekitchen/btstack/blob/master/src/btstack_event.h#L5279'
p1362
sS'nibble_for_char'
p1363
S'https://github.com/bluekitchen/btstack/blob/master/src/btstack_util.h#L191'
p1364
sS'big_endian_read_32'
p1365
S'https://github.com/bluekitchen/btstack/blob/master/src/btstack_util.h#L121'
p1366
sS'sdp_event_query_attribute_value_get_record_id'
p1367
S'https://github.com/bluekitchen/btstack/blob/master/src/btstack_event.h#L1662'
p1368
sS'hci_event_authentication_complete_event_get_connection_handle'
p1369
S'https://github.com/bluekitchen/btstack/blob/master/src/btstack_event.h#L343'
p1370
sS'hci_event_command_status_get_status'
p1371
S'https://github.com/bluekitchen/btstack/blob/master/src/btstack_event.h#L484'
p1372
sS'hci_event_connection_packet_type_changed_get_packet_types'
p1373
S'https://github.com/bluekitchen/btstack/blob/master/src/btstack_event.h#L682'
p1374
sS'gatt_event_long_characteristic_value_query_result_get_value_offset'
p1375
S'https://github.com/bluekitchen/btstack/blob/master/src/btstack_event.h#L1899'
p1376
sS'a2dp_subevent_signaling_media_codec_sbc_configuration_get_reconfigure'
p1377
S'https://github.com/bluekitchen/btstack/blob/master/src/btstack_event.h#L4641'
p1378
sS'att_db_util_add_characteristic_uuid16'
p1379
S'https://github.com/bluekitchen/btstack/blob/master/src/ble/att_db_util.h#L80'
p1380
sS'l2cap_event_le_channel_opened_get_remote_mtu'
p1381
S'https://github.com/bluekitchen/btstack/blob/master/src/btstack_event.h#L1397'
p1382
sS'avrcp_subevent_set_absolute_volume_response_get_avrcp_cid'
p1383
S'https://github.com/bluekitchen/btstack/blob/master/src/btstack_event.h#L5251'
p1384
sS'bnep_can_send_packet_now'
p1385
S'https://github.com/bluekitchen/btstack/blob/master/src/classic/bnep.h#L170'
p1386
sS'sm_event_passkey_display_number_get_address'
p1387
S'https://github.com/bluekitchen/btstack/blob/master/src/btstack_event.h#L2426'
p1388
sS'bnep_event_channel_opened_get_mtu'
p1389
S'https://github.com/bluekitchen/btstack/blob/master/src/btstack_event.h#L2208'
p1390
sS'sdp_event_query_attribute_byte_get_data_offset'
p1391
S'https://github.com/bluekitchen/btstack/blob/master/src/btstack_event.h#L1643'
p1392
sS'hfp_hf_disable_report_extended_audio_gateway_error_result_code'
p1393
S'https://github.com/bluekitchen/btstack/blob/master/src/classic/hfp_hf.h#L179'
p1394
sS'ad_data_contains_uuid128'
p1395
S'https://github.com/bluekitchen/btstack/blob/master/src/ad_parser.h#L74'
p1396
sS'hci_request_sco_can_send_now_event'
p1397
S'https://github.com/bluekitchen/btstack/blob/master/src/hci.h#L966'
p1398
sS'avdtp_subevent_signaling_media_codec_sbc_configuration_get_remote_seid'
p1399
S'https://github.com/bluekitchen/btstack/blob/master/src/btstack_event.h#L4338'
p1400
sS'btstack_linked_list_iterator_has_next'
p1401
S'https://github.com/bluekitchen/btstack/blob/master/src/btstack_linked_list.h#L90'
p1402
sS'hsp_ag_init'
p1403
S'https://github.com/bluekitchen/btstack/blob/master/src/classic/hsp_ag.h#L61'
p1404
sS'a2dp_subevent_stream_established_get_a2dp_cid'
p1405
S'https://github.com/bluekitchen/btstack/blob/master/src/btstack_event.h#L4805'
p1406
sS'avdtp_subevent_signaling_media_codec_other_capability_get_media_codec_information'
p1407
S'https://github.com/bluekitchen/btstack/blob/master/src/btstack_event.h#L4310'
p1408
sS'sm_event_just_works_cancel_get_addr_type'
p1409
S'https://github.com/bluekitchen/btstack/blob/master/src/btstack_event.h#L2387'
p1410
sS'gatt_client_discover_characteristics_for_handle_range_by_uuid128'
p1411
S'https://github.com/bluekitchen/btstack/blob/master/src/ble/gatt_client.h#L251'
p1412
sS'gap_event_inquiry_result_get_rssi_available'
p1413
S'https://github.com/bluekitchen/btstack/blob/master/src/btstack_event.h#L2989'
p1414
sS'sm_authorization_grant'
p1415
S'https://github.com/bluekitchen/btstack/blob/master/src/ble/sm.h#L237'
p1416
sS'if'
p1417
S'https://github.com/bluekitchen/btstack/blob/master/src/classic/rfcomm.h#L383'
p1418
sS'gatt_client_write_long_value_of_characteristic_with_offset'
p1419
S'https://github.com/bluekitchen/btstack/blob/master/src/ble/gatt_client.h#L301'
p1420
sS'hsp_hs_enable_custom_indications'
p1421
S'https://github.com/bluekitchen/btstack/blob/master/src/classic/hsp_hs.h#L162'
p1422
sS'hfp_hf_query_subscriber_number'
p1423
S'https://github.com/bluekitchen/btstack/blob/master/src/classic/hfp_hf.h#L409'
p1424
sS'bnep_init'
p1425
S'https://github.com/bluekitchen/btstack/blob/master/src/classic/bnep.h#L165'
p1426
sS'gap_store_link_key_for_bd_addr'
p1427
S'https://github.com/bluekitchen/btstack/blob/master/src/gap.h#L387'
p1428
sS'gatt_client_read_value_of_characteristic'
p1429
S'https://github.com/bluekitchen/btstack/blob/master/src/ble/gatt_client.h#L263'
p1430
sS'sm_event_identity_resolving_failed_get_address'
p1431
S'https://github.com/bluekitchen/btstack/blob/master/src/btstack_event.h#L2654'
p1432
sS'hci_dump_log'
p1433
S'https://github.com/bluekitchen/btstack/blob/master/src/hci_dump.h#L90'
p1434
sS'reverse_48'
p1435
S'https://github.com/bluekitchen/btstack/blob/master/src/btstack_util.h#L173'
p1436
sS'gap_get_connection_parameter_range'
p1437
S'https://github.com/bluekitchen/btstack/blob/master/src/gap.h#L316'
p1438
sS'hci_event_max_slots_changed_get_lmp_max_slots'
p1439
S'https://github.com/bluekitchen/btstack/blob/master/src/btstack_event.h#L626'
p1440
sS'hfp_hf_end_active_and_accept_other'
p1441
S'https://github.com/bluekitchen/btstack/blob/master/src/classic/hfp_hf.h#L220'
p1442
sS'gap_auto_connection_stop_all'
p1443
S'https://github.com/bluekitchen/btstack/blob/master/src/gap.h#L354'
p1444
sS'hfp_ag_activate_voice_recognition'
p1445
S'https://github.com/bluekitchen/btstack/blob/master/src/classic/hfp_ag.h#L241'
p1446
sS'hfp_subevent_speaker_volume_get_status'
p1447
S'https://github.com/bluekitchen/btstack/blob/master/src/btstack_event.h#L3765'
p1448
sS'advertising'
p1449
S'https://github.com/bluekitchen/btstack/blob/master/src/gap.h#L267'
p1450
sS'gap_random_address_get_mode'
p1451
S'https://github.com/bluekitchen/btstack/blob/master/src/gap.h#L221'
p1452
sS'hfp_subevent_network_operator_changed_get_network_operator_format'
p1453
S'https://github.com/bluekitchen/btstack/blob/master/src/btstack_event.h#L3699'
p1454
sS'gap_connect_cancel'
p1455
S'https://github.com/bluekitchen/btstack/blob/master/src/gap.h#L332'
p1456
sS'gatt_client_discover_primary_services_by_uuid128'
p1457
S'https://github.com/bluekitchen/btstack/blob/master/src/ble/gatt_client.h#L235'
p1458
sS'hci_event_avdtp_meta_get_subevent_code'
p1459
S'https://github.com/bluekitchen/btstack/blob/master/src/btstack_event.h#L85'
p1460
sS'avdtp_subevent_signaling_media_codec_other_capability_get_remote_seid'
p1461
S'https://github.com/bluekitchen/btstack/blob/master/src/btstack_event.h#L4274'
p1462
sS'gap_mitm_protection_required_for_security_level'
p1463
S'https://github.com/bluekitchen/btstack/blob/master/src/gap.h#L193'
p1464
sS'hfp_hf_release_audio_connection'
p1465
S'https://github.com/bluekitchen/btstack/blob/master/src/classic/hfp_hf.h#L196'
p1466
sS'le_device_db_dump'
p1467
S'https://github.com/bluekitchen/btstack/blob/master/src/ble/le_device_db.h#L191'
p1468
sS'hci_subevent_le_data_length_change_get_max_tx_octets'
p1469
S'https://github.com/bluekitchen/btstack/blob/master/src/btstack_event.h#L3284'
p1470
sS'gatt_client_read_value_of_characteristics_by_uuid16'
p1471
S'https://github.com/bluekitchen/btstack/blob/master/src/ble/gatt_client.h#L269'
p1472
sS'hci_transport_usb_instance'
p1473
S'https://github.com/bluekitchen/btstack/blob/master/src/hci_transport.h#L160'
p1474
sS'hfp_ag_clear_last_dialed_number'
p1475
S'https://github.com/bluekitchen/btstack/blob/master/src/classic/hfp_ag.h#L224'
p1476
sS'sm_set_ir'
p1477
S'https://github.com/bluekitchen/btstack/blob/master/src/ble/sm.h#L116'
p1478
sS'gap_ssp_confirmation_negative'
p1479
S'https://github.com/bluekitchen/btstack/blob/master/src/gap.h#L460'
p1480
sS'btstack_linked_list_get_last_item'
p1481
S'https://github.com/bluekitchen/btstack/blob/master/src/btstack_linked_list.h#L77'
p1482
sS'gatt_event_characteristic_value_query_result_get_value_length'
p1483
S'https://github.com/bluekitchen/btstack/blob/master/src/btstack_event.h#L1860'
p1484
sS'hci_power_control'
p1485
S'https://github.com/bluekitchen/btstack/blob/master/src/hci.h#L913'
p1486
sS'little_endian_read_24'
p1487
S'https://github.com/bluekitchen/btstack/blob/master/src/btstack_util.h#L101'
p1488
sS'hci_subevent_le_read_remote_used_features_complete_get_connection_handle'
p1489
S'https://github.com/bluekitchen/btstack/blob/master/src/btstack_event.h#L3173'
p1490
sS'a2dp_subevent_signaling_media_codec_sbc_configuration_get_subbands'
p1491
S'https://github.com/bluekitchen/btstack/blob/master/src/btstack_event.h#L4695'
p1492
sS'gatt_event_indication_get_value_handle'
p1493
S'https://github.com/bluekitchen/btstack/blob/master/src/btstack_event.h#L1977'
p1494
sS'avrcp_subevent_now_playing_info_get_title_len'
p1495
S'https://github.com/bluekitchen/btstack/blob/master/src/btstack_event.h#L4982'
p1496
sS'sm_encryption_key_size'
p1497
S'https://github.com/bluekitchen/btstack/blob/master/src/ble/sm.h#L205'
p1498
sS'hci_set_bd_addr'
p1499
S'https://github.com/bluekitchen/btstack/blob/master/src/hci.h#L891'
p1500
sS'hid_subevent_connection_opened_get_bd_addr'
p1501
S'https://github.com/bluekitchen/btstack/blob/master/src/btstack_event.h#L5541'
p1502
sS'l2cap_le_disconnect'
p1503
S'https://github.com/bluekitchen/btstack/blob/master/src/l2cap.h#L585'
p1504
sS'hci_event_inquiry_result_get_class_of_device'
p1505
S'https://github.com/bluekitchen/btstack/blob/master/src/btstack_event.h#L213'
p1506
sS'gap_security_level_for_link_key_type'
p1507
S'https://github.com/bluekitchen/btstack/blob/master/src/gap.h#L188'
p1508
sS'hci_dump_close'
p1509
S'https://github.com/bluekitchen/btstack/blob/master/src/hci_dump.h#L104'
p1510
sS'gap_inquiry_start'
p1511
S'https://github.com/bluekitchen/btstack/blob/master/src/gap.h#L395'
p1512
sS'hsp_subevent_audio_disconnection_complete_get_status'
p1513
S'https://github.com/bluekitchen/btstack/blob/master/src/btstack_event.h#L3516'
p1514
sS'rfcomm_event_channel_opened_get_max_frame_size'
p1515
S'https://github.com/bluekitchen/btstack/blob/master/src/btstack_event.h#L1482'
p1516
sS'hci_event_inquiry_result_with_rssi_get_reserved'
p1517
S'https://github.com/bluekitchen/btstack/blob/master/src/btstack_event.h#L719'
p1518
sS'hci_subevent_le_connection_complete_get_status'
p1519
S'https://github.com/bluekitchen/btstack/blob/master/src/btstack_event.h#L3045'
p1520
sS'gap_event_inquiry_result_get_rssi'
p1521
S'https://github.com/bluekitchen/btstack/blob/master/src/btstack_event.h#L2998'
p1522
sS'a2dp_subevent_signaling_media_codec_sbc_configuration_get_max_bitpool_value'
p1523
S'https://github.com/bluekitchen/btstack/blob/master/src/btstack_event.h#L4722'
p1524
sS'le_device_db_remote_csrk_set'
p1525
S'https://github.com/bluekitchen/btstack/blob/master/src/ble/le_device_db.h#L146'
p1526
sS'hci_event_hid_meta_get_subevent_code'
p1527
S'https://github.com/bluekitchen/btstack/blob/master/src/btstack_event.h#L149'
p1528
sS'l2cap_le_unregister_service'
p1529
S'https://github.com/bluekitchen/btstack/blob/master/src/l2cap.h#L517'
p1530
sS'avrcp_subevent_now_playing_info_get_album_len'
p1531
S'https://github.com/bluekitchen/btstack/blob/master/src/btstack_event.h#L5018'
p1532
sS'gap_event_advertising_report_get_data'
p1533
S'https://github.com/bluekitchen/btstack/blob/master/src/btstack_event.h#L2943'
p1534
sS'hfp_subevent_enhanced_call_status_get_clcc_idx'
p1535
S'https://github.com/bluekitchen/btstack/blob/master/src/btstack_event.h#L3841'
p1536
sS'avrcp_subevent_operation_start_get_command_type'
p1537
S'https://github.com/bluekitchen/btstack/blob/master/src/btstack_event.h#L5316'
p1538
sS'gatt_event_long_characteristic_value_query_result_get_value'
p1539
S'https://github.com/bluekitchen/btstack/blob/master/src/btstack_event.h#L1917'
p1540
sS'hci_event_connection_packet_type_changed_get_status'
p1541
S'https://github.com/bluekitchen/btstack/blob/master/src/btstack_event.h#L664'
p1542
sS'hci_transport_h5_enable_bcsp_mode'
p1543
S'https://github.com/bluekitchen/btstack/blob/master/src/hci_transport.h#L155'
p1544
sS'ancs_client_register_callback'
p1545
S'https://github.com/bluekitchen/btstack/blob/master/src/ble/ancs_client.h#L51'
p1546
sS'a2dp_subevent_signaling_media_codec_sbc_configuration_get_min_bitpool_value'
p1547
S'https://github.com/bluekitchen/btstack/blob/master/src/btstack_event.h#L4713'
p1548
sS'sm_event_authorization_request_get_handle'
p1549
S'https://github.com/bluekitchen/btstack/blob/master/src/btstack_event.h#L2723'
p1550
sS'hci_event_connection_packet_type_changed_get_handle'
p1551
S'https://github.com/bluekitchen/btstack/blob/master/src/btstack_event.h#L673'
p1552
sS'sm_event_keypress_notification_get_handle'
p1553
S'https://github.com/bluekitchen/btstack/blob/master/src/btstack_event.h#L2792'
p1554
sS'l2cap_event_connection_parameter_update_request_get_interval_max'
p1555
S'https://github.com/bluekitchen/btstack/blob/master/src/btstack_event.h#L1195'
p1556
sS'gap_event_inquiry_result_get_bd_addr'
p1557
S'https://github.com/bluekitchen/btstack/blob/master/src/btstack_event.h#L2953'
p1558
sS'hci_event_change_connection_link_key_complete_get_status'
p1559
S'https://github.com/bluekitchen/btstack/blob/master/src/btstack_event.h#L409'
p1560
sS'bd_addr_cmp'
p1561
S'https://github.com/bluekitchen/btstack/blob/master/src/btstack_util.h#L199'
p1562
sS'avdtp_subevent_signaling_sep_found_get_media_type'
p1563
S'https://github.com/bluekitchen/btstack/blob/master/src/btstack_event.h#L4137'
p1564
sS'rfcomm_event_channel_opened_get_bd_addr'
p1565
S'https://github.com/bluekitchen/btstack/blob/master/src/btstack_event.h#L1446'
p1566
sS'l2cap_event_incoming_connection_get_address'
p1567
S'https://github.com/bluekitchen/btstack/blob/master/src/btstack_event.h#L1131'
p1568
sS'gap_remote_name_request'
p1569
S'https://github.com/bluekitchen/btstack/blob/master/src/gap.h#L412'
p1570
sS'sm_event_just_works_request_get_address'
p1571
S'https://github.com/bluekitchen/btstack/blob/master/src/btstack_event.h#L2366'
p1572
sS'avrcp_subevent_notification_volume_changed_get_avrcp_cid'
p1573
S'https://github.com/bluekitchen/btstack/blob/master/src/btstack_event.h#L5223'
p1574
sS'hsp_hs_init'
p1575
S'https://github.com/bluekitchen/btstack/blob/master/src/classic/hsp_hs.h#L61'
p1576
sS'hci_subevent_le_connection_complete_get_connection_handle'
p1577
S'https://github.com/bluekitchen/btstack/blob/master/src/btstack_event.h#L3054'
p1578
sS'hci_event_inquiry_result_with_rssi_get_rssi'
p1579
S'https://github.com/bluekitchen/btstack/blob/master/src/btstack_event.h#L746'
p1580
sS'hfp_phone_number_t'
p1581
S'https://github.com/bluekitchen/btstack/blob/master/src/classic/hfp_ag.h#L61'
p1582
sS'btstack_is_big_endian'
p1583
S'https://github.com/bluekitchen/btstack/blob/master/src/btstack_util.h#L145'
p1584
sS'sm_event_passkey_input_number_get_addr_type'
p1585
S'https://github.com/bluekitchen/btstack/blob/master/src/btstack_event.h#L2486'
p1586
sS'avdtp_subevent_signaling_media_codec_other_configuration_get_remote_seid'
p1587
S'https://github.com/bluekitchen/btstack/blob/master/src/btstack_event.h#L4456'
p1588
sS'hci_event_encryption_key_refresh_complete_get_handle'
p1589
S'https://github.com/bluekitchen/btstack/blob/master/src/btstack_event.h#L911'
p1590
sS'att_event_mtu_exchange_complete_get_MTU'
p1591
S'https://github.com/bluekitchen/btstack/blob/master/src/btstack_event.h#L2114'
p1592
sS'de_element_get_uint16'
p1593
S'https://github.com/bluekitchen/btstack/blob/master/src/classic/sdp_util.h#L82'
p1594
sS'reverse_128'
p1595
S'https://github.com/bluekitchen/btstack/blob/master/src/btstack_util.h#L176'
p1596
sS'l2cap_event_incoming_connection_get_remote_cid'
p1597
S'https://github.com/bluekitchen/btstack/blob/master/src/btstack_event.h#L1167'
p1598
sS'gatt_client_discover_characteristic_descriptors'
p1599
S'https://github.com/bluekitchen/btstack/blob/master/src/ble/gatt_client.h#L258'
p1600
sS'avdtp_subevent_signaling_media_codec_sbc_capability_get_media_type'
p1601
S'https://github.com/bluekitchen/btstack/blob/master/src/btstack_event.h#L4183'
p1602
sS'goep_subevent_connection_opened_get_goep_cid'
p1603
S'https://github.com/bluekitchen/btstack/blob/master/src/btstack_event.h#L5382'
p1604
sS'avdtp_subevent_streaming_connection_released_get_avdtp_cid'
p1605
S'https://github.com/bluekitchen/btstack/blob/master/src/btstack_event.h#L4548'
p1606
sS'hfp_hf_activate_call_waiting_notification'
p1607
S'https://github.com/bluekitchen/btstack/blob/master/src/classic/hfp_hf.h#L276'
p1608
sS'big_endian_store_32'
p1609
S'https://github.com/bluekitchen/btstack/blob/master/src/btstack_util.h#L131'
p1610
sS'hsp_hs_connect'
p1611
S'https://github.com/bluekitchen/btstack/blob/master/src/classic/hsp_hs.h#L99'
p1612
sS'avrcp_subevent_now_playing_info_get_total_tracks'
p1613
S'https://github.com/bluekitchen/btstack/blob/master/src/btstack_event.h#L4964'
p1614
sS'l2cap_event_le_channel_opened_get_address'
p1615
S'https://github.com/bluekitchen/btstack/blob/master/src/btstack_event.h#L1334'
p1616
sS'avdtp_subevent_signaling_reject_get_signal_identifier'
p1617
S'https://github.com/bluekitchen/btstack/blob/master/src/btstack_event.h#L4034'
p1618
sS'ad_iterator_get_data_type'
p1619
S'https://github.com/bluekitchen/btstack/blob/master/src/ad_parser.h#L68'
p1620
sS'rfcomm_send_modem_status'
p1621
S'https://github.com/bluekitchen/btstack/blob/master/src/classic/rfcomm.h#L356'
p1622
sS'sdp_append_attributes_in_attributeIDList'
p1623
S'https://github.com/bluekitchen/btstack/blob/master/src/classic/sdp_util.h#L111'
p1624
sS'sdp_service_search_pattern_for_uuid128'
p1625
S'https://github.com/bluekitchen/btstack/blob/master/src/classic/sdp_util.h#L130'
p1626
sS'avrcp_subevent_play_status_get_play_status'
p1627
S'https://github.com/bluekitchen/btstack/blob/master/src/btstack_event.h#L5128'
p1628
sS'hfp_hf_deactivate_voice_recognition_notification'
p1629
S'https://github.com/bluekitchen/btstack/blob/master/src/classic/hfp_hf.h#L325'
p1630
sS'bnep_event_channel_timeout_get_destination_uuid'
p1631
S'https://github.com/bluekitchen/btstack/blob/master/src/btstack_event.h#L2282'
p1632
sS'hfp_ag_set_battery_level'
p1633
S'https://github.com/bluekitchen/btstack/blob/master/src/classic/hfp_ag.h#L219'
p1634
sS'de_get_header_size'
p1635
S'https://github.com/bluekitchen/btstack/blob/master/src/classic/sdp_util.h#L81'
p1636
sS'att_db_util_init'
p1637
S'https://github.com/bluekitchen/btstack/blob/master/src/ble/att_db_util.h#L63'
p1638
sS'hfp_hf_terminate_call'
p1639
S'https://github.com/bluekitchen/btstack/blob/master/src/classic/hfp_hf.h#L246'
p1640
sS'de_push_sequence'
p1641
S'https://github.com/bluekitchen/btstack/blob/master/src/classic/sdp_util.h#L89'
p1642
sS'avdtp_subevent_signaling_media_codec_sbc_capability_get_block_length_bitmap'
p1643
S'https://github.com/bluekitchen/btstack/blob/master/src/btstack_event.h#L4210'
p1644
sS'de_pop_sequence'
p1645
S'https://github.com/bluekitchen/btstack/blob/master/src/classic/sdp_util.h#L90'
p1646
sS'le_device_db_add'
p1647
S'https://github.com/bluekitchen/btstack/blob/master/src/ble/le_device_db.h#L84'
p1648
sS'avdtp_subevent_signaling_media_codec_sbc_capability_get_allocation_method_bitmap'
p1649
S'https://github.com/bluekitchen/btstack/blob/master/src/btstack_event.h#L4228'
p1650
sS'hfp_ag_set_microphone_gain'
p1651
S'https://github.com/bluekitchen/btstack/blob/master/src/classic/hfp_ag.h#L206'
p1652
sS'rfcomm_init'
p1653
S'https://github.com/bluekitchen/btstack/blob/master/src/classic/rfcomm.h#L251'
p1654
sS'avrcp_subevent_operation_complete_get_operation_id'
p1655
S'https://github.com/bluekitchen/btstack/blob/master/src/btstack_event.h#L5353'
p1656
sS'bnep_event_channel_timeout_get_remote_address'
p1657
S'https://github.com/bluekitchen/btstack/blob/master/src/btstack_event.h#L2291'
p1658
sS'avrcp_subevent_now_playing_info_get_command_type'
p1659
S'https://github.com/bluekitchen/btstack/blob/master/src/btstack_event.h#L4946'
p1660
sS'hci_event_read_clock_offset_complete_get_handle'
p1661
S'https://github.com/bluekitchen/btstack/blob/master/src/btstack_event.h#L645'
p1662
sS'sm_event_passkey_input_number_get_address'
p1663
S'https://github.com/bluekitchen/btstack/blob/master/src/btstack_event.h#L2495'
p1664
sS'hci_event_hfp_meta_get_subevent_code'
p1665
S'https://github.com/bluekitchen/btstack/blob/master/src/btstack_event.h#L117'
p1666
sS'avrcp_subevent_notification_available_players_changed_get_command_type'
p1667
S'https://github.com/bluekitchen/btstack/blob/master/src/btstack_event.h#L5213'
p1668
sS'l2cap_event_le_channel_opened_get_local_mtu'
p1669
S'https://github.com/bluekitchen/btstack/blob/master/src/btstack_event.h#L1388'
p1670
sS'btstack_run_loop_get_time_ms'
p1671
S'https://github.com/bluekitchen/btstack/blob/master/src/btstack_run_loop.h#L155'
p1672
sS'avrcp_subevent_notification_volume_changed_get_command_type'
p1673
S'https://github.com/bluekitchen/btstack/blob/master/src/btstack_event.h#L5232'
p1674
sS'rfcomm_event_remote_line_status_get_rfcomm_cid'
p1675
S'https://github.com/bluekitchen/btstack/blob/master/src/btstack_event.h#L1539'
p1676
sS'avdtp_subevent_signaling_media_codec_other_capability_get_local_seid'
p1677
S'https://github.com/bluekitchen/btstack/blob/master/src/btstack_event.h#L4265'
p1678
sS'l2cap_event_le_channel_opened_get_address_type'
p1679
S'https://github.com/bluekitchen/btstack/blob/master/src/btstack_event.h#L1325'
p1680
sS'avdtp_subevent_signaling_media_codec_sbc_capability_get_avdtp_cid'
p1681
S'https://github.com/bluekitchen/btstack/blob/master/src/btstack_event.h#L4156'
p1682
sS'hfp_subevent_complete_get_status'
p1683
S'https://github.com/bluekitchen/btstack/blob/master/src/btstack_event.h#L3652'
p1684
sS'l2cap_event_channel_opened_get_incoming'
p1685
S'https://github.com/bluekitchen/btstack/blob/master/src/btstack_event.h#L1111'
p1686
sS'le_device_db_remote_csrk_get'
p1687
S'https://github.com/bluekitchen/btstack/blob/master/src/ble/le_device_db.h#L153'
p1688
sS'l2cap_event_le_incoming_connection_get_address_type'
p1689
S'https://github.com/bluekitchen/btstack/blob/master/src/btstack_event.h#L1252'
p1690
sS'gatt_event_indication_get_handle'
p1691
S'https://github.com/bluekitchen/btstack/blob/master/src/btstack_event.h#L1968'
p1692
sS'l2cap_event_channel_opened_get_remote_mtu'
p1693
S'https://github.com/bluekitchen/btstack/blob/master/src/btstack_event.h#L1093'
p1694
sS'hci_subevent_le_connection_complete_get_conn_latency'
p1695
S'https://github.com/bluekitchen/btstack/blob/master/src/btstack_event.h#L3099'
p1696
sS'hfp_hf_swap_calls'
p1697
S'https://github.com/bluekitchen/btstack/blob/master/src/classic/hfp_hf.h#L226'
p1698
sS'hci_event_inquiry_result_get_bd_addr'
p1699
S'https://github.com/bluekitchen/btstack/blob/master/src/btstack_event.h#L177'
p1700
sS'gatt_client_write_value_of_characteristic_without_response'
p1701
S'https://github.com/bluekitchen/btstack/blob/master/src/ble/gatt_client.h#L289'
p1702
sS'a2dp_subevent_stream_established_get_local_seid'
p1703
S'https://github.com/bluekitchen/btstack/blob/master/src/btstack_event.h#L4814'
p1704
sS'hfp_ag_init_ag_indicators'
p1705
S'https://github.com/bluekitchen/btstack/blob/master/src/classic/hfp_ag.h#L98'
p1706
sS'bnep_set_net_type_filter'
p1707
S'https://github.com/bluekitchen/btstack/blob/master/src/classic/bnep.h#L188'
p1708
sS'little_endian_store_16'
p1709
S'https://github.com/bluekitchen/btstack/blob/master/src/btstack_util.h#L110'
p1710
sS'l2cap_init'
p1711
S'https://github.com/bluekitchen/btstack/blob/master/src/l2cap.h#L376'
p1712
sS'gap_pin_code_response'
p1713
S'https://github.com/bluekitchen/btstack/blob/master/src/gap.h#L420'
p1714
sS'hfp_hf_activate_calling_line_notification'
p1715
S'https://github.com/bluekitchen/btstack/blob/master/src/classic/hfp_hf.h#L291'
p1716
sS'sm_authorization_state'
p1717
S'https://github.com/bluekitchen/btstack/blob/master/src/ble/sm.h#L219'
p1718
sS'l2cap_event_le_incoming_connection_get_local_cid'
p1719
S'https://github.com/bluekitchen/btstack/blob/master/src/btstack_event.h#L1288'
p1720
sS'hci_event_encryption_change_get_connection_handle'
p1721
S'https://github.com/bluekitchen/btstack/blob/master/src/btstack_event.h#L390'
p1722
sS'hci_transport_h5_set_auto_sleep'
p1723
S'https://github.com/bluekitchen/btstack/blob/master/src/hci_transport.h#L150'
p1724
sS'hci_event_connection_complete_get_bd_addr'
p1725
S'https://github.com/bluekitchen/btstack/blob/master/src/btstack_event.h#L250'
p1726
sS'hsp_subevent_rfcomm_connection_complete_get_status'
p1727
S'https://github.com/bluekitchen/btstack/blob/master/src/btstack_event.h#L3477'
p1728
sS'sscanf_bd_addr'
p1729
S'https://github.com/bluekitchen/btstack/blob/master/src/btstack_util.h#L233'
p1730
sS'avrcp_subevent_operation_complete_get_command_type'
p1731
S'https://github.com/bluekitchen/btstack/blob/master/src/btstack_event.h#L5344'
p1732
sS'ad_context_t'
p1733
S'https://github.com/bluekitchen/btstack/blob/master/src/ad_parser.h#L60'
p1734
sS'hci_can_send_command_packet_now'
p1735
S'https://github.com/bluekitchen/btstack/blob/master/src/hci.h#L945'
p1736
sS'hfp_hf_deactivate_call_waiting_notification'
p1737
S'https://github.com/bluekitchen/btstack/blob/master/src/classic/hfp_hf.h#L282'
p1738
sS'de_get_normalized_uuid'
p1739
S'https://github.com/bluekitchen/btstack/blob/master/src/classic/sdp_util.h#L85'
p1740
sS'gap_ssp_set_enable'
p1741
S'https://github.com/bluekitchen/btstack/blob/master/src/gap.h#L162'
p1742
sS'avrcp_subevent_operation_complete_get_avrcp_cid'
p1743
S'https://github.com/bluekitchen/btstack/blob/master/src/btstack_event.h#L5335'
p1744
sS'sm_event_just_works_request_get_addr_type'
p1745
S'https://github.com/bluekitchen/btstack/blob/master/src/btstack_event.h#L2357'
p1746
sS'bnep_event_channel_opened_get_status'
p1747
S'https://github.com/bluekitchen/btstack/blob/master/src/btstack_event.h#L2172'
p1748
sS'gatt_event_service_query_result_get_service'
p1749
S'https://github.com/bluekitchen/btstack/blob/master/src/btstack_event.h#L1758'
p1750
sS'gatt_client_write_client_characteristic_configuration'
p1751
S'https://github.com/bluekitchen/btstack/blob/master/src/ble/gatt_client.h#L333'
p1752
sS'avdtp_subevent_streaming_connection_established_get_avdtp_cid'
p1753
S'https://github.com/bluekitchen/btstack/blob/master/src/btstack_event.h#L4511'
p1754
sS'btstack_linked_list_iterator_remove'
p1755
S'https://github.com/bluekitchen/btstack/blob/master/src/btstack_linked_list.h#L92'
p1756
sS'uuid_add_bluetooth_prefix'
p1757
S'https://github.com/bluekitchen/btstack/blob/master/src/btstack_util.h#L240'
p1758
sS'hci_event_mode_change_event_get_mode'
p1759
S'https://github.com/bluekitchen/btstack/blob/master/src/btstack_event.h#L568'
p1760
sS'gatt_client_discover_characteristics_for_service'
p1761
S'https://github.com/bluekitchen/btstack/blob/master/src/ble/gatt_client.h#L245'
p1762
sS'hci_event_synchronous_connection_complete_get_retransmission_interval'
p1763
S'https://github.com/bluekitchen/btstack/blob/master/src/btstack_event.h#L801'
p1764
sS'reverse_64'
p1765
S'https://github.com/bluekitchen/btstack/blob/master/src/btstack_util.h#L175'
p1766
sS'hci_transport_config_t'
p1767
S'https://github.com/bluekitchen/btstack/blob/master/src/hci_transport.h#L121'
p1768
sS'hfp_hf_dial_number'
p1769
S'https://github.com/bluekitchen/btstack/blob/master/src/classic/hfp_hf.h#L253'
p1770
sS'hfp_subevent_network_operator_changed_get_network_operator_mode'
p1771
S'https://github.com/bluekitchen/btstack/blob/master/src/btstack_event.h#L3690'
p1772
sS'le_device_db_local_counter_get'
p1773
S'https://github.com/bluekitchen/btstack/blob/master/src/ble/le_device_db.h#L174'
p1774
sS'gatt_client_read_long_value_of_characteristic'
p1775
S'https://github.com/bluekitchen/btstack/blob/master/src/ble/gatt_client.h#L275'
p1776
sS'printf_hexdump'
p1777
S'https://github.com/bluekitchen/btstack/blob/master/src/btstack_util.h#L211'
p1778
sS'sdp_event_query_attribute_value_get_attribute_value'
p1779
S'https://github.com/bluekitchen/btstack/blob/master/src/btstack_event.h#L1689'
p1780
sS'gatt_event_mtu_get_handle'
p1781
S'https://github.com/bluekitchen/btstack/blob/master/src/btstack_event.h#L2085'
p1782
sS'hfp_ag_send_dtmf_code_done'
p1783
S'https://github.com/bluekitchen/btstack/blob/master/src/classic/hfp_ag.h#L325'
p1784
sS'a2dp_subevent_signaling_media_codec_sbc_configuration_get_acp_seid'
p1785
S'https://github.com/bluekitchen/btstack/blob/master/src/btstack_event.h#L4632'
p1786
sS'gap_security_level'
p1787
S'https://github.com/bluekitchen/btstack/blob/master/src/gap.h#L189'
p1788
sS'avdtp_subevent_signaling_media_codec_sbc_configuration_get_allocation_method'
p1789
S'https://github.com/bluekitchen/btstack/blob/master/src/btstack_event.h#L4410'
p1790
sS'sdp_event_query_attribute_byte_get_attribute_length'
p1791
S'https://github.com/bluekitchen/btstack/blob/master/src/btstack_event.h#L1634'
p1792
sS'rfcomm_event_remote_modem_status_get_rfcomm_cid'
p1793
S'https://github.com/bluekitchen/btstack/blob/master/src/btstack_event.h#L1558'
p1794
sS'sm_event_numeric_comparison_cancel_get_addr_type'
p1795
S'https://github.com/bluekitchen/btstack/blob/master/src/btstack_event.h#L2585'
p1796
sS'hci_subevent_le_data_length_change_get_max_tx_time'
p1797
S'https://github.com/bluekitchen/btstack/blob/master/src/btstack_event.h#L3293'
p1798
sS'hfp_hf_set_speaker_gain'
p1799
S'https://github.com/bluekitchen/btstack/blob/master/src/classic/hfp_hf.h#L339'
p1800
sS'hci_event_hardware_error_get_hardware_code'
p1801
S'https://github.com/bluekitchen/btstack/blob/master/src/btstack_event.h#L512'
p1802
sS'att_event_handle_value_indication_complete_get_conn_handle'
p1803
S'https://github.com/bluekitchen/btstack/blob/master/src/btstack_event.h#L2133'
p1804
sS'hfp_ag_join_held_call'
p1805
S'https://github.com/bluekitchen/btstack/blob/master/src/classic/hfp_ag.h#L179'
p1806
sS'*'
p1807
S'https://github.com/bluekitchen/btstack/blob/master/src/btstack_util.h#L156'
p1808
sS'des_iterator_init'
p1809
S'https://github.com/bluekitchen/btstack/blob/master/src/classic/sdp_util.h#L103'
p1810
sS'a2dp_subevent_streaming_can_send_media_packet_now_get_local_seid'
p1811
S'https://github.com/bluekitchen/btstack/blob/master/src/btstack_event.h#L4604'
p1812
sS'hci_subevent_le_enhanced_connection_complete_get_connection_handle'
p1813
S'https://github.com/bluekitchen/btstack/blob/master/src/btstack_event.h#L3386'
p1814
sS'sdp_client_query_rfcomm_channel_and_name_for_uuid128'
p1815
S'https://github.com/bluekitchen/btstack/blob/master/src/classic/sdp_client_rfcomm.h#L65'
p1816
sS'hfp_ag_hold_incoming_call'
p1817
S'https://github.com/bluekitchen/btstack/blob/master/src/classic/hfp_ag.h#L189'
p1818
sS'bnep_send'
p1819
S'https://github.com/bluekitchen/btstack/blob/master/src/classic/bnep.h#L183'
p1820
sS'l2cap_event_le_channel_opened_get_remote_cid'
p1821
S'https://github.com/bluekitchen/btstack/blob/master/src/btstack_event.h#L1379'
p1822
sS'avdtp_subevent_signaling_sep_found_get_sep_type'
p1823
S'https://github.com/bluekitchen/btstack/blob/master/src/btstack_event.h#L4146'
p1824
sS'att_server_register_can_send_now_callback'
p1825
S'https://github.com/bluekitchen/btstack/blob/master/src/ble/att_server.h#L87'
p1826
sS'sdp_register_service'
p1827
S'https://github.com/bluekitchen/btstack/blob/master/src/classic/sdp_server.h#L75'
p1828
sS'btstack_link_key_db_t'
p1829
S'https://github.com/bluekitchen/btstack/blob/master/src/classic/btstack_link_key_db.h#L65'
p1830
sS'avdtp_subevent_streaming_connection_established_get_status'
p1831
S'https://github.com/bluekitchen/btstack/blob/master/src/btstack_event.h#L4538'
p1832
sS'hfp_subevent_subscriber_number_information_get_bnip_number'
p1833
S'https://github.com/bluekitchen/btstack/blob/master/src/btstack_event.h#L3914'
p1834
sS'hci_subevent_le_connection_complete_get_master_clock_accuracy'
p1835
S'https://github.com/bluekitchen/btstack/blob/master/src/btstack_event.h#L3117'
p1836
sS'gap_drop_link_key_for_bd_addr'
p1837
S'https://github.com/bluekitchen/btstack/blob/master/src/gap.h#L379'
p1838
sS'hci_subevent_le_enhanced_connection_complete_get_supervision_timeout'
p1839
S'https://github.com/bluekitchen/btstack/blob/master/src/btstack_event.h#L3458'
p1840
sS'hci_event_inquiry_result_get_reserved2'
p1841
S'https://github.com/bluekitchen/btstack/blob/master/src/btstack_event.h#L204'
p1842
sS'hci_event_inquiry_result_get_reserved1'
p1843
S'https://github.com/bluekitchen/btstack/blob/master/src/btstack_event.h#L195'
p1844
sS'bnep_set_multicast_filter'
p1845
S'https://github.com/bluekitchen/btstack/blob/master/src/classic/bnep.h#L193'
p1846
sS'gap_connect'
p1847
S'https://github.com/bluekitchen/btstack/blob/master/src/gap.h#L327'
p1848
sS'l2cap_le_create_channel'
p1849
S'https://github.com/bluekitchen/btstack/blob/master/src/l2cap.h#L547'
p1850
sS'hfp_subevent_service_level_connection_established_get_con_handle'
p1851
S'https://github.com/bluekitchen/btstack/blob/master/src/btstack_event.h#L3594'
p1852
sS'avdtp_subevent_signaling_general_reject_get_avdtp_cid'
p1853
S'https://github.com/bluekitchen/btstack/blob/master/src/btstack_event.h#L4044'
p1854
sS'gap_random_address_set'
p1855
S'https://github.com/bluekitchen/btstack/blob/master/src/gap.h#L234'
p1856
sS'a2dp_subevent_stream_established_get_status'
p1857
S'https://github.com/bluekitchen/btstack/blob/master/src/btstack_event.h#L4832'
p1858
sS'btstack_linked_item_t'
p1859
S'https://github.com/bluekitchen/btstack/blob/master/src/btstack_linked_list.h#L53'
p1860
sS'spd_get_filtered_size'
p1861
S'https://github.com/bluekitchen/btstack/blob/master/src/classic/sdp_util.h#L115'
p1862
sS'rfcomm_send_local_line_status'
p1863
S'https://github.com/bluekitchen/btstack/blob/master/src/classic/rfcomm.h#L349'
p1864
sS'hci_transport_h4_instance'
p1865
S'https://github.com/bluekitchen/btstack/blob/master/src/hci_transport.h#L138'
p1866
sS'bnep_event_service_registered_get_status'
p1867
S'https://github.com/bluekitchen/btstack/blob/master/src/btstack_event.h#L2153'
p1868
sS'sm_bonding_decline'
p1869
S'https://github.com/bluekitchen/btstack/blob/master/src/ble/sm.h#L171'
p1870
sS'hfp_subevent_ag_indicator_status_changed_get_indicator_status'
p1871
S'https://github.com/bluekitchen/btstack/blob/master/src/btstack_event.h#L3671'
p1872
sS'l2cap_accept_connection'
p1873
S'https://github.com/bluekitchen/btstack/blob/master/src/l2cap.h#L447'
p1874
sS'att_db_util_add_characteristic_uuid128'
p1875
S'https://github.com/bluekitchen/btstack/blob/master/src/ble/att_db_util.h#L87'
p1876
sS'avdtp_subevent_signaling_connection_released_get_avdtp_cid'
p1877
S'https://github.com/bluekitchen/btstack/blob/master/src/btstack_event.h#L4100'
p1878
sS'hci_subevent_le_connection_complete_get_peer_address'
p1879
S'https://github.com/bluekitchen/btstack/blob/master/src/btstack_event.h#L3081'
p1880
sS'sdp_event_query_rfcomm_service_get_name'
p1881
S'https://github.com/bluekitchen/btstack/blob/master/src/btstack_event.h#L1606'
p1882
sS'hci_reserve_packet_buffer'
p1883
S'https://github.com/bluekitchen/btstack/blob/master/src/hci.h#L991'
p1884
sS'hfp_hf_rrh_query_status'
p1885
S'https://github.com/bluekitchen/btstack/blob/master/src/classic/hfp_hf.h#L384'
p1886
sS'a2dp_subevent_signaling_media_codec_other_configuration_get_media_codec_type'
p1887
S'https://github.com/bluekitchen/btstack/blob/master/src/btstack_event.h#L4777'
p1888
sS'hci_event_connection_complete_get_connection_handle'
p1889
S'https://github.com/bluekitchen/btstack/blob/master/src/btstack_event.h#L241'
p1890
sS'gap_random_address_set_mode'
p1891
S'https://github.com/bluekitchen/btstack/blob/master/src/gap.h#L216'
p1892
sS'l2cap_max_mtu'
p1893
S'https://github.com/bluekitchen/btstack/blob/master/src/l2cap.h#L386'
p1894
sS'att_server_indicate'
p1895
S'https://github.com/bluekitchen/btstack/blob/master/src/ble/att_server.h#L107'
p1896
sS'rfcomm_send_port_configuration'
p1897
S'https://github.com/bluekitchen/btstack/blob/master/src/classic/rfcomm.h#L367'
p1898
sS'att_event_mtu_exchange_complete_get_handle'
p1899
S'https://github.com/bluekitchen/btstack/blob/master/src/btstack_event.h#L2105'
p1900
sS'l2cap_decline_connection'
p1901
S'https://github.com/bluekitchen/btstack/blob/master/src/l2cap.h#L462'
p1902
sS'hci_subevent_le_enhanced_connection_complete_get_peer_address_type'
p1903
S'https://github.com/bluekitchen/btstack/blob/master/src/btstack_event.h#L3404'
p1904
sS'hci_set_chipset'
p1905
S'https://github.com/bluekitchen/btstack/blob/master/src/hci.h#L871'
p1906
sS'l2cap_le_request_can_send_now_event'
p1907
S'https://github.com/bluekitchen/btstack/blob/master/src/l2cap.h#L570'
p1908
sS'a2dp_subevent_signaling_media_codec_other_configuration_get_media_codec_information'
p1909
S'https://github.com/bluekitchen/btstack/blob/master/src/btstack_event.h#L4795'
p1910
sS'hfp_ag_register_packet_handler'
p1911
S'https://github.com/bluekitchen/btstack/blob/master/src/classic/hfp_ag.h#L119'
p1912
sS'ad_iterator_get_data_len'
p1913
S'https://github.com/bluekitchen/btstack/blob/master/src/ad_parser.h#L69'
p1914
sS'gap_event_inquiry_result_get_name_available'
p1915
S'https://github.com/bluekitchen/btstack/blob/master/src/btstack_event.h#L3007'
p1916
sS'gatt_client_read_multiple_characteristic_values'
p1917
S'https://github.com/bluekitchen/btstack/blob/master/src/ble/gatt_client.h#L284'
p1918
sS'hsp_subevent_ag_indication_get_value_length'
p1919
S'https://github.com/bluekitchen/btstack/blob/master/src/btstack_event.h#L3566'
p1920
sS'gatt_event_characteristic_value_query_result_get_value_handle'
p1921
S'https://github.com/bluekitchen/btstack/blob/master/src/btstack_event.h#L1851'
p1922
sS'avdtp_subevent_signaling_sep_found_get_remote_seid'
p1923
S'https://github.com/bluekitchen/btstack/blob/master/src/btstack_event.h#L4119'
p1924
sS'gap_request_connection_parameter_update'
p1925
S'https://github.com/bluekitchen/btstack/blob/master/src/gap.h#L297'
p1926
sS'hfp_hf_create_sdp_record'
p1927
S'https://github.com/bluekitchen/btstack/blob/master/src/classic/hfp_hf.h#L66'
p1928
sS'ad_iterator_init'
p1929
S'https://github.com/bluekitchen/btstack/blob/master/src/ad_parser.h#L63'
p1930
sS'no'
p1931
S'https://github.com/bluekitchen/btstack/blob/master/src/gap.h#L360'
p1932
sS'rfcomm_event_remote_modem_status_get_modem_status'
p1933
S'https://github.com/bluekitchen/btstack/blob/master/src/btstack_event.h#L1567'
p1934
sS'att_db_util_add_service_uuid128'
p1935
S'https://github.com/bluekitchen/btstack/blob/master/src/ble/att_db_util.h#L73'
p1936
sS'hci_event_hsp_meta_get_subevent_code'
p1937
S'https://github.com/bluekitchen/btstack/blob/master/src/btstack_event.h#L125'
p1938
sS'gatt_client_stop_listening_for_characteristic_value_updates'
p1939
S'https://github.com/bluekitchen/btstack/blob/master/src/ble/gatt_client.h#L348'
p1940
sS'hfp_ag_set_roaming_status'
p1941
S'https://github.com/bluekitchen/btstack/blob/master/src/classic/hfp_ag.h#L312'
p1942
sS'hci_event_simple_pairing_complete_get_bd_addr'
p1943
S'https://github.com/bluekitchen/btstack/blob/master/src/btstack_event.h#L969'
p1944
sS'gatt_event_characteristic_descriptor_query_result_get_descriptor_handle'
p1945
S'https://github.com/bluekitchen/btstack/blob/master/src/btstack_event.h#L2016'
p1946
sS'avdtp_subevent_signaling_media_codec_other_capability_get_avdtp_cid'
p1947
S'https://github.com/bluekitchen/btstack/blob/master/src/btstack_event.h#L4256'
p1948
sS'hsp_ag_enable_custom_commands'
p1949
S'https://github.com/bluekitchen/btstack/blob/master/src/classic/hsp_ag.h#L157'
p1950
sS'avdtp_subevent_signaling_reject_get_local_seid'
p1951
S'https://github.com/bluekitchen/btstack/blob/master/src/btstack_event.h#L4025'
p1952
sS'hci_subevent_le_read_local_p256_public_key_complete_get_status'
p1953
S'https://github.com/bluekitchen/btstack/blob/master/src/btstack_event.h#L3321'
p1954
sS'sm_event_identity_created_get_handle'
p1955
S'https://github.com/bluekitchen/btstack/blob/master/src/btstack_event.h#L2813'
p1956
sS'sm_event_passkey_display_cancel_get_address'
p1957
S'https://github.com/bluekitchen/btstack/blob/master/src/btstack_event.h#L2465'
p1958
sS'l2cap_event_le_incoming_connection_get_remote_mtu'
p1959
S'https://github.com/bluekitchen/btstack/blob/master/src/btstack_event.h#L1306'
p1960
sS'hci_event_inquiry_result_with_rssi_get_num_responses'
p1961
S'https://github.com/bluekitchen/btstack/blob/master/src/btstack_event.h#L692'
p1962
sS'rfcomm_request_can_send_now_event'
p1963
S'https://github.com/bluekitchen/btstack/blob/master/src/classic/rfcomm.h#L336'
p1964
sS'avdtp_subevent_streaming_can_send_media_packet_now_get_local_seid'
p1965
S'https://github.com/bluekitchen/btstack/blob/master/src/btstack_event.h#L4576'
p1966
sS'hfp_ag_create_sdp_record'
p1967
S'https://github.com/bluekitchen/btstack/blob/master/src/classic/hfp_ag.h#L72'
p1968
sS'hci_subevent_le_connection_update_complete_get_connection_handle'
p1969
S'https://github.com/bluekitchen/btstack/blob/master/src/btstack_event.h#L3136'
p1970
sS'l2cap_unregister_service'
p1971
S'https://github.com/bluekitchen/btstack/blob/master/src/l2cap.h#L442'
p1972
sS'l2cap_create_ertm_channel'
p1973
S'https://github.com/bluekitchen/btstack/blob/master/src/l2cap.h#L416'
p1974
sS'btstack_linked_list_add'
p1975
S'https://github.com/bluekitchen/btstack/blob/master/src/btstack_linked_list.h#L67'
p1976
sS'hci_subevent_le_remote_connection_parameter_request_get_latency'
p1977
S'https://github.com/bluekitchen/btstack/blob/master/src/btstack_event.h#L3256'
p1978
sS'gatt_event_long_characteristic_descriptor_query_result_get_descriptor_length'
p1979
S'https://github.com/bluekitchen/btstack/blob/master/src/btstack_event.h#L2064'
p1980
sS'sm_cmac_signed_write_start'
p1981
S'https://github.com/bluekitchen/btstack/blob/master/src/ble/sm.h#L268'
p1982
sS'l2cap_disconnect'
p1983
S'https://github.com/bluekitchen/btstack/blob/master/src/l2cap.h#L422'
p1984
sS'avdtp_subevent_streaming_can_send_media_packet_now_get_sequence_number'
p1985
S'https://github.com/bluekitchen/btstack/blob/master/src/btstack_event.h#L4585'
p1986
sS'sm_set_authentication_requirements'
p1987
S'https://github.com/bluekitchen/btstack/blob/master/src/ble/sm.h#L147'
p1988
sS'gap_event_inquiry_result_get_name'
p1989
S'https://github.com/bluekitchen/btstack/blob/master/src/btstack_event.h#L3025'
p1990
sS'pbap_subevent_connection_opened_get_status'
p1991
S'https://github.com/bluekitchen/btstack/blob/master/src/btstack_event.h#L5457'
p1992
sS'a2dp_subevent_signaling_media_codec_other_configuration_get_media_codec_information_len'
p1993
S'https://github.com/bluekitchen/btstack/blob/master/src/btstack_event.h#L4786'
p1994
sS'hsp_subevent_speaker_gain_changed_get_gain'
p1995
S'https://github.com/bluekitchen/btstack/blob/master/src/btstack_event.h#L3537'
p1996
sS'Gateway'
p1997
S'https://github.com/bluekitchen/btstack/blob/master/src/classic/hfp_ag.h#L133'
p1998
sS'gap_advertisements_set_params'
p1999
S'https://github.com/bluekitchen/btstack/blob/master/src/gap.h#L255'
p2000
sS'l2cap_reserve_packet_buffer'
p2001
S'https://github.com/bluekitchen/btstack/blob/master/src/l2cap.h#L480'
p2002
sS'rfcomm_event_channel_opened_get_rfcomm_cid'
p2003
S'https://github.com/bluekitchen/btstack/blob/master/src/btstack_event.h#L1473'
p2004
sS'gatt_event_long_characteristic_value_query_result_get_value_length'
p2005
S'https://github.com/bluekitchen/btstack/blob/master/src/btstack_event.h#L1908'
p2006
sS'avrcp_subevent_notification_track_changed_get_command_type'
p2007
S'https://github.com/bluekitchen/btstack/blob/master/src/btstack_event.h#L5175'
p2008
sS'bnep_request_can_send_now_event'
p2009
S'https://github.com/bluekitchen/btstack/blob/master/src/classic/bnep.h#L178'
p2010
sS'att_db_util_get_address'
p2011
S'https://github.com/bluekitchen/btstack/blob/master/src/ble/att_db_util.h#L92'
p2012
sS'sm_address_resolution_lookup'
p2013
S'https://github.com/bluekitchen/btstack/blob/master/src/ble/sm.h#L275'
p2014
s.